
build/lwip_iperf.elf:     file format elf32-littleriscv


Disassembly of section .init:

00001000 <_start>:

_start:
#ifdef USE_GP
.option push
.option norelax
	la gp, __global_pointer$
    1000:	0001f197          	auipc	gp,0x1f
    1004:	7a818193          	addi	gp,gp,1960 # 207a8 <__global_pointer$>

00001008 <init>:
	sw a0, smp_lottery_lock, a1
    ret
#endif

init:
	la sp, _sp
    1008:	00024117          	auipc	sp,0x24
    100c:	4e810113          	addi	sp,sp,1256 # 254f0 <__freertos_irq_stack_top>

	/* Load data section */
	la a0, _data_lma
    1010:	0001c517          	auipc	a0,0x1c
    1014:	9e050513          	addi	a0,a0,-1568 # 1c9f0 <_data>
	la a1, _data
    1018:	0001c597          	auipc	a1,0x1c
    101c:	9d858593          	addi	a1,a1,-1576 # 1c9f0 <_data>
	la a2, _edata
    1020:	8bc18613          	addi	a2,gp,-1860 # 20064 <__bss_start>
	bgeu a1, a2, 2f
    1024:	00c5fc63          	bgeu	a1,a2,103c <init+0x34>
1:
	lw t0, (a0)
    1028:	00052283          	lw	t0,0(a0)
	sw t0, (a1)
    102c:	0055a023          	sw	t0,0(a1)
	addi a0, a0, 4
    1030:	00450513          	addi	a0,a0,4
	addi a1, a1, 4
    1034:	00458593          	addi	a1,a1,4
	bltu a1, a2, 1b
    1038:	fec5e8e3          	bltu	a1,a2,1028 <init+0x20>
2:

	/* Clear bss section */
	la a0, __bss_start
    103c:	8bc18513          	addi	a0,gp,-1860 # 20064 <__bss_start>
	la a1, _end
    1040:	00023597          	auipc	a1,0x23
    1044:	4b058593          	addi	a1,a1,1200 # 244f0 <_end>
	bgeu a0, a1, 2f
    1048:	00b57863          	bgeu	a0,a1,1058 <init+0x50>
1:
	sw zero, (a0)
    104c:	00052023          	sw	zero,0(a0)
	addi a0, a0, 4
    1050:	00450513          	addi	a0,a0,4
	bltu a0, a1, 1b
    1054:	feb56ce3          	bltu	a0,a1,104c <init+0x44>
2:

#ifndef NO_LIBC_INIT_ARRAY
	call __libc_init_array
    1058:	028000ef          	jal	ra,1080 <__libc_init_array>
#endif

	call main
    105c:	4b8020ef          	jal	ra,3514 <main>

00001060 <mainDone>:
mainDone:
    j mainDone
    1060:	0000006f          	j	1060 <mainDone>

00001064 <_init>:


	.globl _init
_init:
    ret
    1064:	00008067          	ret

Disassembly of section .text:

00001068 <atoi>:
    1068:	00a00613          	li	a2,10
    106c:	00000593          	li	a1,0
    1070:	08c0106f          	j	20fc <strtol>

00001074 <_atoi_r>:
    1074:	00a00693          	li	a3,10
    1078:	00000613          	li	a2,0
    107c:	0640106f          	j	20e0 <_strtol_r>

00001080 <__libc_init_array>:
    1080:	ff010113          	addi	sp,sp,-16
    1084:	00812423          	sw	s0,8(sp)
    1088:	01212023          	sw	s2,0(sp)
    108c:	0001c417          	auipc	s0,0x1c
    1090:	96440413          	addi	s0,s0,-1692 # 1c9f0 <_data>
    1094:	0001c917          	auipc	s2,0x1c
    1098:	95c90913          	addi	s2,s2,-1700 # 1c9f0 <_data>
    109c:	40890933          	sub	s2,s2,s0
    10a0:	00112623          	sw	ra,12(sp)
    10a4:	00912223          	sw	s1,4(sp)
    10a8:	40295913          	srai	s2,s2,0x2
    10ac:	00090e63          	beqz	s2,10c8 <__libc_init_array+0x48>
    10b0:	00000493          	li	s1,0
    10b4:	00042783          	lw	a5,0(s0)
    10b8:	00148493          	addi	s1,s1,1
    10bc:	00440413          	addi	s0,s0,4
    10c0:	000780e7          	jalr	a5
    10c4:	fe9918e3          	bne	s2,s1,10b4 <__libc_init_array+0x34>
    10c8:	0001c417          	auipc	s0,0x1c
    10cc:	92840413          	addi	s0,s0,-1752 # 1c9f0 <_data>
    10d0:	0001c917          	auipc	s2,0x1c
    10d4:	92090913          	addi	s2,s2,-1760 # 1c9f0 <_data>
    10d8:	40890933          	sub	s2,s2,s0
    10dc:	40295913          	srai	s2,s2,0x2
    10e0:	00090e63          	beqz	s2,10fc <__libc_init_array+0x7c>
    10e4:	00000493          	li	s1,0
    10e8:	00042783          	lw	a5,0(s0)
    10ec:	00148493          	addi	s1,s1,1
    10f0:	00440413          	addi	s0,s0,4
    10f4:	000780e7          	jalr	a5
    10f8:	fe9918e3          	bne	s2,s1,10e8 <__libc_init_array+0x68>
    10fc:	00c12083          	lw	ra,12(sp)
    1100:	00812403          	lw	s0,8(sp)
    1104:	00412483          	lw	s1,4(sp)
    1108:	00012903          	lw	s2,0(sp)
    110c:	01010113          	addi	sp,sp,16
    1110:	00008067          	ret

00001114 <malloc>:
    1114:	82418793          	addi	a5,gp,-2012 # 1ffcc <_impure_ptr>
    1118:	00050593          	mv	a1,a0
    111c:	0007a503          	lw	a0,0(a5)
    1120:	0140006f          	j	1134 <_malloc_r>

00001124 <free>:
    1124:	82418793          	addi	a5,gp,-2012 # 1ffcc <_impure_ptr>
    1128:	00050593          	mv	a1,a0
    112c:	0007a503          	lw	a0,0(a5)
    1130:	1100106f          	j	2240 <_free_r>

00001134 <_malloc_r>:
    1134:	fd010113          	addi	sp,sp,-48
    1138:	02912223          	sw	s1,36(sp)
    113c:	03212023          	sw	s2,32(sp)
    1140:	02112623          	sw	ra,44(sp)
    1144:	02812423          	sw	s0,40(sp)
    1148:	01312e23          	sw	s3,28(sp)
    114c:	01412c23          	sw	s4,24(sp)
    1150:	01512a23          	sw	s5,20(sp)
    1154:	01612823          	sw	s6,16(sp)
    1158:	01712623          	sw	s7,12(sp)
    115c:	01812423          	sw	s8,8(sp)
    1160:	01912223          	sw	s9,4(sp)
    1164:	00b58493          	addi	s1,a1,11
    1168:	01600793          	li	a5,22
    116c:	00050913          	mv	s2,a0
    1170:	0697e663          	bltu	a5,s1,11dc <_malloc_r+0xa8>
    1174:	01000793          	li	a5,16
    1178:	22b7ec63          	bltu	a5,a1,13b0 <_malloc_r+0x27c>
    117c:	361000ef          	jal	ra,1cdc <__malloc_lock>
    1180:	01000493          	li	s1,16
    1184:	01800793          	li	a5,24
    1188:	00200613          	li	a2,2
    118c:	0001e997          	auipc	s3,0x1e
    1190:	5f898993          	addi	s3,s3,1528 # 1f784 <__malloc_av_>
    1194:	00f987b3          	add	a5,s3,a5
    1198:	0047a403          	lw	s0,4(a5)
    119c:	ff878713          	addi	a4,a5,-8
    11a0:	26e40063          	beq	s0,a4,1400 <_malloc_r+0x2cc>
    11a4:	00442783          	lw	a5,4(s0)
    11a8:	00c42683          	lw	a3,12(s0)
    11ac:	00842603          	lw	a2,8(s0)
    11b0:	ffc7f793          	andi	a5,a5,-4
    11b4:	00f407b3          	add	a5,s0,a5
    11b8:	0047a703          	lw	a4,4(a5)
    11bc:	00d62623          	sw	a3,12(a2)
    11c0:	00c6a423          	sw	a2,8(a3)
    11c4:	00176713          	ori	a4,a4,1
    11c8:	00090513          	mv	a0,s2
    11cc:	00e7a223          	sw	a4,4(a5)
    11d0:	311000ef          	jal	ra,1ce0 <__malloc_unlock>
    11d4:	00840513          	addi	a0,s0,8
    11d8:	1e40006f          	j	13bc <_malloc_r+0x288>
    11dc:	ff84f493          	andi	s1,s1,-8
    11e0:	1c04c863          	bltz	s1,13b0 <_malloc_r+0x27c>
    11e4:	1cb4e663          	bltu	s1,a1,13b0 <_malloc_r+0x27c>
    11e8:	2f5000ef          	jal	ra,1cdc <__malloc_lock>
    11ec:	1f700793          	li	a5,503
    11f0:	4a97f463          	bgeu	a5,s1,1698 <_malloc_r+0x564>
    11f4:	0094d793          	srli	a5,s1,0x9
    11f8:	1e078c63          	beqz	a5,13f0 <_malloc_r+0x2bc>
    11fc:	00400713          	li	a4,4
    1200:	42f76863          	bltu	a4,a5,1630 <_malloc_r+0x4fc>
    1204:	0064d793          	srli	a5,s1,0x6
    1208:	03978613          	addi	a2,a5,57
    120c:	03878513          	addi	a0,a5,56
    1210:	00361693          	slli	a3,a2,0x3
    1214:	0001e997          	auipc	s3,0x1e
    1218:	57098993          	addi	s3,s3,1392 # 1f784 <__malloc_av_>
    121c:	00d986b3          	add	a3,s3,a3
    1220:	0046a403          	lw	s0,4(a3)
    1224:	ff868693          	addi	a3,a3,-8
    1228:	02868c63          	beq	a3,s0,1260 <_malloc_r+0x12c>
    122c:	00442783          	lw	a5,4(s0)
    1230:	00f00593          	li	a1,15
    1234:	ffc7f793          	andi	a5,a5,-4
    1238:	40978733          	sub	a4,a5,s1
    123c:	02e5c063          	blt	a1,a4,125c <_malloc_r+0x128>
    1240:	38075263          	bgez	a4,15c4 <_malloc_r+0x490>
    1244:	00c42403          	lw	s0,12(s0)
    1248:	00868c63          	beq	a3,s0,1260 <_malloc_r+0x12c>
    124c:	00442783          	lw	a5,4(s0)
    1250:	ffc7f793          	andi	a5,a5,-4
    1254:	40978733          	sub	a4,a5,s1
    1258:	fee5d4e3          	bge	a1,a4,1240 <_malloc_r+0x10c>
    125c:	00050613          	mv	a2,a0
    1260:	0109a403          	lw	s0,16(s3)
    1264:	0001e817          	auipc	a6,0x1e
    1268:	52880813          	addi	a6,a6,1320 # 1f78c <__malloc_av_+0x8>
    126c:	1b040863          	beq	s0,a6,141c <_malloc_r+0x2e8>
    1270:	00442583          	lw	a1,4(s0)
    1274:	00f00713          	li	a4,15
    1278:	ffc5f593          	andi	a1,a1,-4
    127c:	409587b3          	sub	a5,a1,s1
    1280:	44f74263          	blt	a4,a5,16c4 <_malloc_r+0x590>
    1284:	0001e717          	auipc	a4,0x1e
    1288:	51072a23          	sw	a6,1300(a4) # 1f798 <__malloc_av_+0x14>
    128c:	0001e717          	auipc	a4,0x1e
    1290:	51072423          	sw	a6,1288(a4) # 1f794 <__malloc_av_+0x10>
    1294:	4007d863          	bgez	a5,16a4 <_malloc_r+0x570>
    1298:	1ff00793          	li	a5,511
    129c:	32b7ea63          	bltu	a5,a1,15d0 <_malloc_r+0x49c>
    12a0:	0035d593          	srli	a1,a1,0x3
    12a4:	00158793          	addi	a5,a1,1
    12a8:	00379793          	slli	a5,a5,0x3
    12ac:	0049a503          	lw	a0,4(s3)
    12b0:	00f987b3          	add	a5,s3,a5
    12b4:	0007a683          	lw	a3,0(a5)
    12b8:	4025d593          	srai	a1,a1,0x2
    12bc:	00100713          	li	a4,1
    12c0:	00b71733          	sll	a4,a4,a1
    12c4:	00a76733          	or	a4,a4,a0
    12c8:	ff878593          	addi	a1,a5,-8
    12cc:	00b42623          	sw	a1,12(s0)
    12d0:	00d42423          	sw	a3,8(s0)
    12d4:	0001e597          	auipc	a1,0x1e
    12d8:	4ae5aa23          	sw	a4,1204(a1) # 1f788 <__malloc_av_+0x4>
    12dc:	0087a023          	sw	s0,0(a5)
    12e0:	0086a623          	sw	s0,12(a3)
    12e4:	40265793          	srai	a5,a2,0x2
    12e8:	00100693          	li	a3,1
    12ec:	00f696b3          	sll	a3,a3,a5
    12f0:	14d76063          	bltu	a4,a3,1430 <_malloc_r+0x2fc>
    12f4:	00e6f7b3          	and	a5,a3,a4
    12f8:	02079463          	bnez	a5,1320 <_malloc_r+0x1ec>
    12fc:	00169693          	slli	a3,a3,0x1
    1300:	ffc67613          	andi	a2,a2,-4
    1304:	00e6f7b3          	and	a5,a3,a4
    1308:	00460613          	addi	a2,a2,4
    130c:	00079a63          	bnez	a5,1320 <_malloc_r+0x1ec>
    1310:	00169693          	slli	a3,a3,0x1
    1314:	00e6f7b3          	and	a5,a3,a4
    1318:	00460613          	addi	a2,a2,4
    131c:	fe078ae3          	beqz	a5,1310 <_malloc_r+0x1dc>
    1320:	00f00513          	li	a0,15
    1324:	00361893          	slli	a7,a2,0x3
    1328:	011988b3          	add	a7,s3,a7
    132c:	00088593          	mv	a1,a7
    1330:	00060313          	mv	t1,a2
    1334:	00c5a403          	lw	s0,12(a1)
    1338:	00859a63          	bne	a1,s0,134c <_malloc_r+0x218>
    133c:	3180006f          	j	1654 <_malloc_r+0x520>
    1340:	32075463          	bgez	a4,1668 <_malloc_r+0x534>
    1344:	00c42403          	lw	s0,12(s0)
    1348:	30858663          	beq	a1,s0,1654 <_malloc_r+0x520>
    134c:	00442783          	lw	a5,4(s0)
    1350:	ffc7f793          	andi	a5,a5,-4
    1354:	40978733          	sub	a4,a5,s1
    1358:	fee554e3          	bge	a0,a4,1340 <_malloc_r+0x20c>
    135c:	00c42683          	lw	a3,12(s0)
    1360:	00842603          	lw	a2,8(s0)
    1364:	0014e593          	ori	a1,s1,1
    1368:	00b42223          	sw	a1,4(s0)
    136c:	00d62623          	sw	a3,12(a2)
    1370:	00c6a423          	sw	a2,8(a3)
    1374:	009404b3          	add	s1,s0,s1
    1378:	0001e697          	auipc	a3,0x1e
    137c:	4296a023          	sw	s1,1056(a3) # 1f798 <__malloc_av_+0x14>
    1380:	0001e697          	auipc	a3,0x1e
    1384:	4096aa23          	sw	s1,1044(a3) # 1f794 <__malloc_av_+0x10>
    1388:	00176693          	ori	a3,a4,1
    138c:	0104a623          	sw	a6,12(s1)
    1390:	0104a423          	sw	a6,8(s1)
    1394:	00d4a223          	sw	a3,4(s1)
    1398:	00f407b3          	add	a5,s0,a5
    139c:	00090513          	mv	a0,s2
    13a0:	00e7a023          	sw	a4,0(a5)
    13a4:	13d000ef          	jal	ra,1ce0 <__malloc_unlock>
    13a8:	00840513          	addi	a0,s0,8
    13ac:	0100006f          	j	13bc <_malloc_r+0x288>
    13b0:	00c00793          	li	a5,12
    13b4:	00f92023          	sw	a5,0(s2)
    13b8:	00000513          	li	a0,0
    13bc:	02c12083          	lw	ra,44(sp)
    13c0:	02812403          	lw	s0,40(sp)
    13c4:	02412483          	lw	s1,36(sp)
    13c8:	02012903          	lw	s2,32(sp)
    13cc:	01c12983          	lw	s3,28(sp)
    13d0:	01812a03          	lw	s4,24(sp)
    13d4:	01412a83          	lw	s5,20(sp)
    13d8:	01012b03          	lw	s6,16(sp)
    13dc:	00c12b83          	lw	s7,12(sp)
    13e0:	00812c03          	lw	s8,8(sp)
    13e4:	00412c83          	lw	s9,4(sp)
    13e8:	03010113          	addi	sp,sp,48
    13ec:	00008067          	ret
    13f0:	20000693          	li	a3,512
    13f4:	04000613          	li	a2,64
    13f8:	03f00513          	li	a0,63
    13fc:	e19ff06f          	j	1214 <_malloc_r+0xe0>
    1400:	00c7a403          	lw	s0,12(a5)
    1404:	00260613          	addi	a2,a2,2
    1408:	d8879ee3          	bne	a5,s0,11a4 <_malloc_r+0x70>
    140c:	0109a403          	lw	s0,16(s3)
    1410:	0001e817          	auipc	a6,0x1e
    1414:	37c80813          	addi	a6,a6,892 # 1f78c <__malloc_av_+0x8>
    1418:	e5041ce3          	bne	s0,a6,1270 <_malloc_r+0x13c>
    141c:	0049a703          	lw	a4,4(s3)
    1420:	40265793          	srai	a5,a2,0x2
    1424:	00100693          	li	a3,1
    1428:	00f696b3          	sll	a3,a3,a5
    142c:	ecd774e3          	bgeu	a4,a3,12f4 <_malloc_r+0x1c0>
    1430:	0089a403          	lw	s0,8(s3)
    1434:	00442a83          	lw	s5,4(s0)
    1438:	ffcafb93          	andi	s7,s5,-4
    143c:	009be863          	bltu	s7,s1,144c <_malloc_r+0x318>
    1440:	409b87b3          	sub	a5,s7,s1
    1444:	00f00713          	li	a4,15
    1448:	14f74863          	blt	a4,a5,1598 <_malloc_r+0x464>
    144c:	96018793          	addi	a5,gp,-1696 # 20108 <__malloc_top_pad>
    1450:	81c18c13          	addi	s8,gp,-2020 # 1ffc4 <__malloc_sbrk_base>
    1454:	0007aa83          	lw	s5,0(a5)
    1458:	000c2703          	lw	a4,0(s8)
    145c:	fff00793          	li	a5,-1
    1460:	01740a33          	add	s4,s0,s7
    1464:	01548ab3          	add	s5,s1,s5
    1468:	34f70663          	beq	a4,a5,17b4 <_malloc_r+0x680>
    146c:	000017b7          	lui	a5,0x1
    1470:	00f78793          	addi	a5,a5,15 # 100f <init+0x7>
    1474:	00fa8ab3          	add	s5,s5,a5
    1478:	fffff7b7          	lui	a5,0xfffff
    147c:	00fafab3          	and	s5,s5,a5
    1480:	000a8593          	mv	a1,s5
    1484:	00090513          	mv	a0,s2
    1488:	0c9000ef          	jal	ra,1d50 <_sbrk_r>
    148c:	fff00793          	li	a5,-1
    1490:	00050b13          	mv	s6,a0
    1494:	28f50663          	beq	a0,a5,1720 <_malloc_r+0x5ec>
    1498:	29456263          	bltu	a0,s4,171c <_malloc_r+0x5e8>
    149c:	ba018c93          	addi	s9,gp,-1120 # 20348 <__malloc_current_mallinfo>
    14a0:	000ca783          	lw	a5,0(s9)
    14a4:	00fa87b3          	add	a5,s5,a5
    14a8:	baf1a023          	sw	a5,-1120(gp) # 20348 <__malloc_current_mallinfo>
    14ac:	00078713          	mv	a4,a5
    14b0:	3aaa0663          	beq	s4,a0,185c <_malloc_r+0x728>
    14b4:	000c2683          	lw	a3,0(s8)
    14b8:	fff00793          	li	a5,-1
    14bc:	3af68e63          	beq	a3,a5,1878 <_malloc_r+0x744>
    14c0:	414b07b3          	sub	a5,s6,s4
    14c4:	00e787b3          	add	a5,a5,a4
    14c8:	baf1a023          	sw	a5,-1120(gp) # 20348 <__malloc_current_mallinfo>
    14cc:	007b7c13          	andi	s8,s6,7
    14d0:	300c0663          	beqz	s8,17dc <_malloc_r+0x6a8>
    14d4:	418b0b33          	sub	s6,s6,s8
    14d8:	000017b7          	lui	a5,0x1
    14dc:	008b0b13          	addi	s6,s6,8
    14e0:	fff78a13          	addi	s4,a5,-1 # fff <regnum_t6+0xfe0>
    14e4:	015b0ab3          	add	s5,s6,s5
    14e8:	00878793          	addi	a5,a5,8
    14ec:	014af733          	and	a4,s5,s4
    14f0:	418787b3          	sub	a5,a5,s8
    14f4:	40e787b3          	sub	a5,a5,a4
    14f8:	0147fa33          	and	s4,a5,s4
    14fc:	000a0593          	mv	a1,s4
    1500:	00090513          	mv	a0,s2
    1504:	04d000ef          	jal	ra,1d50 <_sbrk_r>
    1508:	fff00793          	li	a5,-1
    150c:	3cf50063          	beq	a0,a5,18cc <_malloc_r+0x798>
    1510:	41650533          	sub	a0,a0,s6
    1514:	01450ab3          	add	s5,a0,s4
    1518:	000ca783          	lw	a5,0(s9)
    151c:	0001e717          	auipc	a4,0x1e
    1520:	27672823          	sw	s6,624(a4) # 1f78c <__malloc_av_+0x8>
    1524:	001aea93          	ori	s5,s5,1
    1528:	00fa07b3          	add	a5,s4,a5
    152c:	baf1a023          	sw	a5,-1120(gp) # 20348 <__malloc_current_mallinfo>
    1530:	015b2223          	sw	s5,4(s6)
    1534:	35340663          	beq	s0,s3,1880 <_malloc_r+0x74c>
    1538:	00f00613          	li	a2,15
    153c:	35767663          	bgeu	a2,s7,1888 <_malloc_r+0x754>
    1540:	00442683          	lw	a3,4(s0)
    1544:	ff4b8713          	addi	a4,s7,-12
    1548:	ff877713          	andi	a4,a4,-8
    154c:	0016f693          	andi	a3,a3,1
    1550:	00e6e6b3          	or	a3,a3,a4
    1554:	00d42223          	sw	a3,4(s0)
    1558:	00500593          	li	a1,5
    155c:	00e406b3          	add	a3,s0,a4
    1560:	00b6a223          	sw	a1,4(a3)
    1564:	00b6a423          	sw	a1,8(a3)
    1568:	36e66c63          	bltu	a2,a4,18e0 <_malloc_r+0x7ac>
    156c:	004b2a83          	lw	s5,4(s6)
    1570:	000b0413          	mv	s0,s6
    1574:	95818713          	addi	a4,gp,-1704 # 20100 <__malloc_max_sbrked_mem>
    1578:	00072703          	lw	a4,0(a4)
    157c:	00f77463          	bgeu	a4,a5,1584 <_malloc_r+0x450>
    1580:	94f1ac23          	sw	a5,-1704(gp) # 20100 <__malloc_max_sbrked_mem>
    1584:	95c18713          	addi	a4,gp,-1700 # 20104 <__malloc_max_total_mem>
    1588:	00072703          	lw	a4,0(a4)
    158c:	18f77e63          	bgeu	a4,a5,1728 <_malloc_r+0x5f4>
    1590:	94f1ae23          	sw	a5,-1700(gp) # 20104 <__malloc_max_total_mem>
    1594:	1940006f          	j	1728 <_malloc_r+0x5f4>
    1598:	0014e713          	ori	a4,s1,1
    159c:	00e42223          	sw	a4,4(s0)
    15a0:	009404b3          	add	s1,s0,s1
    15a4:	0001e717          	auipc	a4,0x1e
    15a8:	1e972423          	sw	s1,488(a4) # 1f78c <__malloc_av_+0x8>
    15ac:	0017e793          	ori	a5,a5,1
    15b0:	00090513          	mv	a0,s2
    15b4:	00f4a223          	sw	a5,4(s1)
    15b8:	728000ef          	jal	ra,1ce0 <__malloc_unlock>
    15bc:	00840513          	addi	a0,s0,8
    15c0:	dfdff06f          	j	13bc <_malloc_r+0x288>
    15c4:	00c42683          	lw	a3,12(s0)
    15c8:	00842603          	lw	a2,8(s0)
    15cc:	be9ff06f          	j	11b4 <_malloc_r+0x80>
    15d0:	0095d793          	srli	a5,a1,0x9
    15d4:	00400713          	li	a4,4
    15d8:	12f77863          	bgeu	a4,a5,1708 <_malloc_r+0x5d4>
    15dc:	01400713          	li	a4,20
    15e0:	22f76863          	bltu	a4,a5,1810 <_malloc_r+0x6dc>
    15e4:	05c78693          	addi	a3,a5,92
    15e8:	05b78713          	addi	a4,a5,91
    15ec:	00369693          	slli	a3,a3,0x3
    15f0:	00d986b3          	add	a3,s3,a3
    15f4:	0006a783          	lw	a5,0(a3)
    15f8:	ff868693          	addi	a3,a3,-8
    15fc:	1cf68063          	beq	a3,a5,17bc <_malloc_r+0x688>
    1600:	0047a703          	lw	a4,4(a5)
    1604:	ffc77713          	andi	a4,a4,-4
    1608:	00e5f663          	bgeu	a1,a4,1614 <_malloc_r+0x4e0>
    160c:	0087a783          	lw	a5,8(a5)
    1610:	fef698e3          	bne	a3,a5,1600 <_malloc_r+0x4cc>
    1614:	00c7a683          	lw	a3,12(a5)
    1618:	0049a703          	lw	a4,4(s3)
    161c:	00d42623          	sw	a3,12(s0)
    1620:	00f42423          	sw	a5,8(s0)
    1624:	0086a423          	sw	s0,8(a3)
    1628:	0087a623          	sw	s0,12(a5)
    162c:	cb9ff06f          	j	12e4 <_malloc_r+0x1b0>
    1630:	01400713          	li	a4,20
    1634:	10f77c63          	bgeu	a4,a5,174c <_malloc_r+0x618>
    1638:	05400713          	li	a4,84
    163c:	1ef76863          	bltu	a4,a5,182c <_malloc_r+0x6f8>
    1640:	00c4d793          	srli	a5,s1,0xc
    1644:	06f78613          	addi	a2,a5,111
    1648:	06e78513          	addi	a0,a5,110
    164c:	00361693          	slli	a3,a2,0x3
    1650:	bc5ff06f          	j	1214 <_malloc_r+0xe0>
    1654:	00130313          	addi	t1,t1,1
    1658:	00337793          	andi	a5,t1,3
    165c:	00858593          	addi	a1,a1,8
    1660:	cc079ae3          	bnez	a5,1334 <_malloc_r+0x200>
    1664:	1040006f          	j	1768 <_malloc_r+0x634>
    1668:	00f407b3          	add	a5,s0,a5
    166c:	0047a703          	lw	a4,4(a5)
    1670:	00c42683          	lw	a3,12(s0)
    1674:	00842603          	lw	a2,8(s0)
    1678:	00176713          	ori	a4,a4,1
    167c:	00e7a223          	sw	a4,4(a5)
    1680:	00d62623          	sw	a3,12(a2)
    1684:	00090513          	mv	a0,s2
    1688:	00c6a423          	sw	a2,8(a3)
    168c:	654000ef          	jal	ra,1ce0 <__malloc_unlock>
    1690:	00840513          	addi	a0,s0,8
    1694:	d29ff06f          	j	13bc <_malloc_r+0x288>
    1698:	0034d613          	srli	a2,s1,0x3
    169c:	00848793          	addi	a5,s1,8
    16a0:	aedff06f          	j	118c <_malloc_r+0x58>
    16a4:	00b405b3          	add	a1,s0,a1
    16a8:	0045a783          	lw	a5,4(a1)
    16ac:	00090513          	mv	a0,s2
    16b0:	0017e793          	ori	a5,a5,1
    16b4:	00f5a223          	sw	a5,4(a1)
    16b8:	628000ef          	jal	ra,1ce0 <__malloc_unlock>
    16bc:	00840513          	addi	a0,s0,8
    16c0:	cfdff06f          	j	13bc <_malloc_r+0x288>
    16c4:	0014e713          	ori	a4,s1,1
    16c8:	00e42223          	sw	a4,4(s0)
    16cc:	009404b3          	add	s1,s0,s1
    16d0:	0001e717          	auipc	a4,0x1e
    16d4:	0c972423          	sw	s1,200(a4) # 1f798 <__malloc_av_+0x14>
    16d8:	0001e717          	auipc	a4,0x1e
    16dc:	0a972e23          	sw	s1,188(a4) # 1f794 <__malloc_av_+0x10>
    16e0:	0017e713          	ori	a4,a5,1
    16e4:	0104a623          	sw	a6,12(s1)
    16e8:	0104a423          	sw	a6,8(s1)
    16ec:	00e4a223          	sw	a4,4(s1)
    16f0:	00b405b3          	add	a1,s0,a1
    16f4:	00090513          	mv	a0,s2
    16f8:	00f5a023          	sw	a5,0(a1)
    16fc:	5e4000ef          	jal	ra,1ce0 <__malloc_unlock>
    1700:	00840513          	addi	a0,s0,8
    1704:	cb9ff06f          	j	13bc <_malloc_r+0x288>
    1708:	0065d793          	srli	a5,a1,0x6
    170c:	03978693          	addi	a3,a5,57
    1710:	03878713          	addi	a4,a5,56
    1714:	00369693          	slli	a3,a3,0x3
    1718:	ed9ff06f          	j	15f0 <_malloc_r+0x4bc>
    171c:	13340663          	beq	s0,s3,1848 <_malloc_r+0x714>
    1720:	0089a403          	lw	s0,8(s3)
    1724:	00442a83          	lw	s5,4(s0)
    1728:	ffcafa93          	andi	s5,s5,-4
    172c:	409a87b3          	sub	a5,s5,s1
    1730:	009ae663          	bltu	s5,s1,173c <_malloc_r+0x608>
    1734:	00f00713          	li	a4,15
    1738:	e6f740e3          	blt	a4,a5,1598 <_malloc_r+0x464>
    173c:	00090513          	mv	a0,s2
    1740:	5a0000ef          	jal	ra,1ce0 <__malloc_unlock>
    1744:	00000513          	li	a0,0
    1748:	c75ff06f          	j	13bc <_malloc_r+0x288>
    174c:	05c78613          	addi	a2,a5,92
    1750:	05b78513          	addi	a0,a5,91
    1754:	00361693          	slli	a3,a2,0x3
    1758:	abdff06f          	j	1214 <_malloc_r+0xe0>
    175c:	0088a783          	lw	a5,8(a7)
    1760:	fff60613          	addi	a2,a2,-1
    1764:	1d179863          	bne	a5,a7,1934 <_malloc_r+0x800>
    1768:	00367793          	andi	a5,a2,3
    176c:	ff888893          	addi	a7,a7,-8
    1770:	fe0796e3          	bnez	a5,175c <_malloc_r+0x628>
    1774:	0049a703          	lw	a4,4(s3)
    1778:	fff6c793          	not	a5,a3
    177c:	00e7f7b3          	and	a5,a5,a4
    1780:	0001e717          	auipc	a4,0x1e
    1784:	00f72423          	sw	a5,8(a4) # 1f788 <__malloc_av_+0x4>
    1788:	00169693          	slli	a3,a3,0x1
    178c:	cad7e2e3          	bltu	a5,a3,1430 <_malloc_r+0x2fc>
    1790:	ca0680e3          	beqz	a3,1430 <_malloc_r+0x2fc>
    1794:	00f6f733          	and	a4,a3,a5
    1798:	00071a63          	bnez	a4,17ac <_malloc_r+0x678>
    179c:	00169693          	slli	a3,a3,0x1
    17a0:	00f6f733          	and	a4,a3,a5
    17a4:	00430313          	addi	t1,t1,4
    17a8:	fe070ae3          	beqz	a4,179c <_malloc_r+0x668>
    17ac:	00030613          	mv	a2,t1
    17b0:	b75ff06f          	j	1324 <_malloc_r+0x1f0>
    17b4:	010a8a93          	addi	s5,s5,16
    17b8:	cc9ff06f          	j	1480 <_malloc_r+0x34c>
    17bc:	0049a503          	lw	a0,4(s3)
    17c0:	40275593          	srai	a1,a4,0x2
    17c4:	00100713          	li	a4,1
    17c8:	00b71733          	sll	a4,a4,a1
    17cc:	00a76733          	or	a4,a4,a0
    17d0:	0001e597          	auipc	a1,0x1e
    17d4:	fae5ac23          	sw	a4,-72(a1) # 1f788 <__malloc_av_+0x4>
    17d8:	e45ff06f          	j	161c <_malloc_r+0x4e8>
    17dc:	000017b7          	lui	a5,0x1
    17e0:	fff78713          	addi	a4,a5,-1 # fff <regnum_t6+0xfe0>
    17e4:	015b0a33          	add	s4,s6,s5
    17e8:	00ea7a33          	and	s4,s4,a4
    17ec:	414787b3          	sub	a5,a5,s4
    17f0:	00e7fa33          	and	s4,a5,a4
    17f4:	000a0593          	mv	a1,s4
    17f8:	00090513          	mv	a0,s2
    17fc:	554000ef          	jal	ra,1d50 <_sbrk_r>
    1800:	fff00793          	li	a5,-1
    1804:	d0f516e3          	bne	a0,a5,1510 <_malloc_r+0x3dc>
    1808:	00000a13          	li	s4,0
    180c:	d0dff06f          	j	1518 <_malloc_r+0x3e4>
    1810:	05400713          	li	a4,84
    1814:	08f76063          	bltu	a4,a5,1894 <_malloc_r+0x760>
    1818:	00c5d793          	srli	a5,a1,0xc
    181c:	06f78693          	addi	a3,a5,111
    1820:	06e78713          	addi	a4,a5,110
    1824:	00369693          	slli	a3,a3,0x3
    1828:	dc9ff06f          	j	15f0 <_malloc_r+0x4bc>
    182c:	15400713          	li	a4,340
    1830:	08f76063          	bltu	a4,a5,18b0 <_malloc_r+0x77c>
    1834:	00f4d793          	srli	a5,s1,0xf
    1838:	07878613          	addi	a2,a5,120
    183c:	07778513          	addi	a0,a5,119
    1840:	00361693          	slli	a3,a2,0x3
    1844:	9d1ff06f          	j	1214 <_malloc_r+0xe0>
    1848:	ba018c93          	addi	s9,gp,-1120 # 20348 <__malloc_current_mallinfo>
    184c:	000ca783          	lw	a5,0(s9)
    1850:	00fa8733          	add	a4,s5,a5
    1854:	bae1a023          	sw	a4,-1120(gp) # 20348 <__malloc_current_mallinfo>
    1858:	c5dff06f          	j	14b4 <_malloc_r+0x380>
    185c:	014a1693          	slli	a3,s4,0x14
    1860:	c4069ae3          	bnez	a3,14b4 <_malloc_r+0x380>
    1864:	0089a403          	lw	s0,8(s3)
    1868:	015b8ab3          	add	s5,s7,s5
    186c:	001aea93          	ori	s5,s5,1
    1870:	01542223          	sw	s5,4(s0)
    1874:	d01ff06f          	j	1574 <_malloc_r+0x440>
    1878:	8161ae23          	sw	s6,-2020(gp) # 1ffc4 <__malloc_sbrk_base>
    187c:	c51ff06f          	j	14cc <_malloc_r+0x398>
    1880:	000b0413          	mv	s0,s6
    1884:	cf1ff06f          	j	1574 <_malloc_r+0x440>
    1888:	00100793          	li	a5,1
    188c:	00fb2223          	sw	a5,4(s6)
    1890:	eadff06f          	j	173c <_malloc_r+0x608>
    1894:	15400713          	li	a4,340
    1898:	06f76263          	bltu	a4,a5,18fc <_malloc_r+0x7c8>
    189c:	00f5d793          	srli	a5,a1,0xf
    18a0:	07878693          	addi	a3,a5,120
    18a4:	07778713          	addi	a4,a5,119
    18a8:	00369693          	slli	a3,a3,0x3
    18ac:	d45ff06f          	j	15f0 <_malloc_r+0x4bc>
    18b0:	55400713          	li	a4,1364
    18b4:	06f76263          	bltu	a4,a5,1918 <_malloc_r+0x7e4>
    18b8:	0124d793          	srli	a5,s1,0x12
    18bc:	07d78613          	addi	a2,a5,125
    18c0:	07c78513          	addi	a0,a5,124
    18c4:	00361693          	slli	a3,a2,0x3
    18c8:	94dff06f          	j	1214 <_malloc_r+0xe0>
    18cc:	ff8c0c13          	addi	s8,s8,-8
    18d0:	018a8ab3          	add	s5,s5,s8
    18d4:	416a8ab3          	sub	s5,s5,s6
    18d8:	00000a13          	li	s4,0
    18dc:	c3dff06f          	j	1518 <_malloc_r+0x3e4>
    18e0:	00840593          	addi	a1,s0,8
    18e4:	00090513          	mv	a0,s2
    18e8:	159000ef          	jal	ra,2240 <_free_r>
    18ec:	0089a403          	lw	s0,8(s3)
    18f0:	000ca783          	lw	a5,0(s9)
    18f4:	00442a83          	lw	s5,4(s0)
    18f8:	c7dff06f          	j	1574 <_malloc_r+0x440>
    18fc:	55400713          	li	a4,1364
    1900:	02f76463          	bltu	a4,a5,1928 <_malloc_r+0x7f4>
    1904:	0125d793          	srli	a5,a1,0x12
    1908:	07d78693          	addi	a3,a5,125
    190c:	07c78713          	addi	a4,a5,124
    1910:	00369693          	slli	a3,a3,0x3
    1914:	cddff06f          	j	15f0 <_malloc_r+0x4bc>
    1918:	3f800693          	li	a3,1016
    191c:	07f00613          	li	a2,127
    1920:	07e00513          	li	a0,126
    1924:	8f1ff06f          	j	1214 <_malloc_r+0xe0>
    1928:	3f800693          	li	a3,1016
    192c:	07e00713          	li	a4,126
    1930:	cc1ff06f          	j	15f0 <_malloc_r+0x4bc>
    1934:	0049a783          	lw	a5,4(s3)
    1938:	e51ff06f          	j	1788 <_malloc_r+0x654>

0000193c <memcmp>:
    193c:	00300793          	li	a5,3
    1940:	02c7f863          	bgeu	a5,a2,1970 <memcmp+0x34>
    1944:	00b567b3          	or	a5,a0,a1
    1948:	0037f793          	andi	a5,a5,3
    194c:	00300693          	li	a3,3
    1950:	06079263          	bnez	a5,19b4 <memcmp+0x78>
    1954:	00052703          	lw	a4,0(a0)
    1958:	0005a783          	lw	a5,0(a1)
    195c:	04f71c63          	bne	a4,a5,19b4 <memcmp+0x78>
    1960:	ffc60613          	addi	a2,a2,-4
    1964:	00450513          	addi	a0,a0,4
    1968:	00458593          	addi	a1,a1,4
    196c:	fec6e4e3          	bltu	a3,a2,1954 <memcmp+0x18>
    1970:	fff60793          	addi	a5,a2,-1
    1974:	02060c63          	beqz	a2,19ac <memcmp+0x70>
    1978:	00054703          	lbu	a4,0(a0)
    197c:	0005c683          	lbu	a3,0(a1)
    1980:	02d71e63          	bne	a4,a3,19bc <memcmp+0x80>
    1984:	00178713          	addi	a4,a5,1
    1988:	00150793          	addi	a5,a0,1
    198c:	00e50533          	add	a0,a0,a4
    1990:	0140006f          	j	19a4 <memcmp+0x68>
    1994:	0007c703          	lbu	a4,0(a5)
    1998:	0005c683          	lbu	a3,0(a1)
    199c:	00178793          	addi	a5,a5,1
    19a0:	00d71e63          	bne	a4,a3,19bc <memcmp+0x80>
    19a4:	00158593          	addi	a1,a1,1
    19a8:	fea796e3          	bne	a5,a0,1994 <memcmp+0x58>
    19ac:	00000513          	li	a0,0
    19b0:	00008067          	ret
    19b4:	fff60793          	addi	a5,a2,-1
    19b8:	fc1ff06f          	j	1978 <memcmp+0x3c>
    19bc:	40d70533          	sub	a0,a4,a3
    19c0:	00008067          	ret

000019c4 <memcpy>:
    19c4:	00a5c7b3          	xor	a5,a1,a0
    19c8:	0037f793          	andi	a5,a5,3
    19cc:	00c508b3          	add	a7,a0,a2
    19d0:	06079263          	bnez	a5,1a34 <memcpy+0x70>
    19d4:	00300793          	li	a5,3
    19d8:	04c7fe63          	bgeu	a5,a2,1a34 <memcpy+0x70>
    19dc:	00357793          	andi	a5,a0,3
    19e0:	00050713          	mv	a4,a0
    19e4:	06079863          	bnez	a5,1a54 <memcpy+0x90>
    19e8:	ffc8f613          	andi	a2,a7,-4
    19ec:	fe060793          	addi	a5,a2,-32
    19f0:	08f76c63          	bltu	a4,a5,1a88 <memcpy+0xc4>
    19f4:	02c77c63          	bgeu	a4,a2,1a2c <memcpy+0x68>
    19f8:	00058693          	mv	a3,a1
    19fc:	00070793          	mv	a5,a4
    1a00:	0006a803          	lw	a6,0(a3)
    1a04:	00478793          	addi	a5,a5,4
    1a08:	00468693          	addi	a3,a3,4
    1a0c:	ff07ae23          	sw	a6,-4(a5)
    1a10:	fec7e8e3          	bltu	a5,a2,1a00 <memcpy+0x3c>
    1a14:	fff60793          	addi	a5,a2,-1
    1a18:	40e787b3          	sub	a5,a5,a4
    1a1c:	ffc7f793          	andi	a5,a5,-4
    1a20:	00478793          	addi	a5,a5,4
    1a24:	00f70733          	add	a4,a4,a5
    1a28:	00f585b3          	add	a1,a1,a5
    1a2c:	01176863          	bltu	a4,a7,1a3c <memcpy+0x78>
    1a30:	00008067          	ret
    1a34:	00050713          	mv	a4,a0
    1a38:	ff157ce3          	bgeu	a0,a7,1a30 <memcpy+0x6c>
    1a3c:	0005c783          	lbu	a5,0(a1)
    1a40:	00170713          	addi	a4,a4,1
    1a44:	00158593          	addi	a1,a1,1
    1a48:	fef70fa3          	sb	a5,-1(a4)
    1a4c:	ff1768e3          	bltu	a4,a7,1a3c <memcpy+0x78>
    1a50:	00008067          	ret
    1a54:	0005c683          	lbu	a3,0(a1)
    1a58:	00170713          	addi	a4,a4,1
    1a5c:	00377793          	andi	a5,a4,3
    1a60:	fed70fa3          	sb	a3,-1(a4)
    1a64:	00158593          	addi	a1,a1,1
    1a68:	f80780e3          	beqz	a5,19e8 <memcpy+0x24>
    1a6c:	0005c683          	lbu	a3,0(a1)
    1a70:	00170713          	addi	a4,a4,1
    1a74:	00377793          	andi	a5,a4,3
    1a78:	fed70fa3          	sb	a3,-1(a4)
    1a7c:	00158593          	addi	a1,a1,1
    1a80:	fc079ae3          	bnez	a5,1a54 <memcpy+0x90>
    1a84:	f65ff06f          	j	19e8 <memcpy+0x24>
    1a88:	0005a683          	lw	a3,0(a1)
    1a8c:	0045a283          	lw	t0,4(a1)
    1a90:	0085af83          	lw	t6,8(a1)
    1a94:	00c5af03          	lw	t5,12(a1)
    1a98:	0105ae83          	lw	t4,16(a1)
    1a9c:	0145ae03          	lw	t3,20(a1)
    1aa0:	0185a303          	lw	t1,24(a1)
    1aa4:	01c5a803          	lw	a6,28(a1)
    1aa8:	02458593          	addi	a1,a1,36
    1aac:	00d72023          	sw	a3,0(a4)
    1ab0:	ffc5a683          	lw	a3,-4(a1)
    1ab4:	00572223          	sw	t0,4(a4)
    1ab8:	01f72423          	sw	t6,8(a4)
    1abc:	01e72623          	sw	t5,12(a4)
    1ac0:	01d72823          	sw	t4,16(a4)
    1ac4:	01c72a23          	sw	t3,20(a4)
    1ac8:	00672c23          	sw	t1,24(a4)
    1acc:	01072e23          	sw	a6,28(a4)
    1ad0:	02470713          	addi	a4,a4,36
    1ad4:	fed72e23          	sw	a3,-4(a4)
    1ad8:	faf768e3          	bltu	a4,a5,1a88 <memcpy+0xc4>
    1adc:	f19ff06f          	j	19f4 <memcpy+0x30>

00001ae0 <memmove>:
    1ae0:	02a5f663          	bgeu	a1,a0,1b0c <memmove+0x2c>
    1ae4:	00c587b3          	add	a5,a1,a2
    1ae8:	02f57263          	bgeu	a0,a5,1b0c <memmove+0x2c>
    1aec:	00c50733          	add	a4,a0,a2
    1af0:	0e060a63          	beqz	a2,1be4 <memmove+0x104>
    1af4:	fff78793          	addi	a5,a5,-1
    1af8:	0007c683          	lbu	a3,0(a5)
    1afc:	fff70713          	addi	a4,a4,-1
    1b00:	00d70023          	sb	a3,0(a4)
    1b04:	fef598e3          	bne	a1,a5,1af4 <memmove+0x14>
    1b08:	00008067          	ret
    1b0c:	00f00793          	li	a5,15
    1b10:	02c7e863          	bltu	a5,a2,1b40 <memmove+0x60>
    1b14:	00050793          	mv	a5,a0
    1b18:	fff60693          	addi	a3,a2,-1
    1b1c:	0c060c63          	beqz	a2,1bf4 <memmove+0x114>
    1b20:	00168693          	addi	a3,a3,1
    1b24:	00d786b3          	add	a3,a5,a3
    1b28:	00158593          	addi	a1,a1,1
    1b2c:	fff5c703          	lbu	a4,-1(a1)
    1b30:	00178793          	addi	a5,a5,1
    1b34:	fee78fa3          	sb	a4,-1(a5)
    1b38:	fed798e3          	bne	a5,a3,1b28 <memmove+0x48>
    1b3c:	00008067          	ret
    1b40:	00a5e7b3          	or	a5,a1,a0
    1b44:	0037f793          	andi	a5,a5,3
    1b48:	0a079063          	bnez	a5,1be8 <memmove+0x108>
    1b4c:	ff060893          	addi	a7,a2,-16
    1b50:	ff08f893          	andi	a7,a7,-16
    1b54:	01088893          	addi	a7,a7,16
    1b58:	01150833          	add	a6,a0,a7
    1b5c:	00058713          	mv	a4,a1
    1b60:	00050793          	mv	a5,a0
    1b64:	00072683          	lw	a3,0(a4)
    1b68:	01078793          	addi	a5,a5,16
    1b6c:	01070713          	addi	a4,a4,16
    1b70:	fed7a823          	sw	a3,-16(a5)
    1b74:	ff472683          	lw	a3,-12(a4)
    1b78:	fed7aa23          	sw	a3,-12(a5)
    1b7c:	ff872683          	lw	a3,-8(a4)
    1b80:	fed7ac23          	sw	a3,-8(a5)
    1b84:	ffc72683          	lw	a3,-4(a4)
    1b88:	fed7ae23          	sw	a3,-4(a5)
    1b8c:	fcf81ce3          	bne	a6,a5,1b64 <memmove+0x84>
    1b90:	00c67713          	andi	a4,a2,12
    1b94:	011585b3          	add	a1,a1,a7
    1b98:	00f67813          	andi	a6,a2,15
    1b9c:	04070e63          	beqz	a4,1bf8 <memmove+0x118>
    1ba0:	00058713          	mv	a4,a1
    1ba4:	00078893          	mv	a7,a5
    1ba8:	00300e13          	li	t3,3
    1bac:	00470713          	addi	a4,a4,4
    1bb0:	ffc72303          	lw	t1,-4(a4)
    1bb4:	00488893          	addi	a7,a7,4
    1bb8:	40e806b3          	sub	a3,a6,a4
    1bbc:	fe68ae23          	sw	t1,-4(a7)
    1bc0:	00d586b3          	add	a3,a1,a3
    1bc4:	fede64e3          	bltu	t3,a3,1bac <memmove+0xcc>
    1bc8:	ffc80713          	addi	a4,a6,-4
    1bcc:	ffc77713          	andi	a4,a4,-4
    1bd0:	00470713          	addi	a4,a4,4
    1bd4:	00367613          	andi	a2,a2,3
    1bd8:	00e787b3          	add	a5,a5,a4
    1bdc:	00e585b3          	add	a1,a1,a4
    1be0:	f39ff06f          	j	1b18 <memmove+0x38>
    1be4:	00008067          	ret
    1be8:	fff60693          	addi	a3,a2,-1
    1bec:	00050793          	mv	a5,a0
    1bf0:	f31ff06f          	j	1b20 <memmove+0x40>
    1bf4:	00008067          	ret
    1bf8:	00080613          	mv	a2,a6
    1bfc:	f1dff06f          	j	1b18 <memmove+0x38>

00001c00 <memset>:
    1c00:	00f00313          	li	t1,15
    1c04:	00050713          	mv	a4,a0
    1c08:	02c37e63          	bgeu	t1,a2,1c44 <memset+0x44>
    1c0c:	00f77793          	andi	a5,a4,15
    1c10:	0a079063          	bnez	a5,1cb0 <memset+0xb0>
    1c14:	08059263          	bnez	a1,1c98 <memset+0x98>
    1c18:	ff067693          	andi	a3,a2,-16
    1c1c:	00f67613          	andi	a2,a2,15
    1c20:	00e686b3          	add	a3,a3,a4
    1c24:	00b72023          	sw	a1,0(a4)
    1c28:	00b72223          	sw	a1,4(a4)
    1c2c:	00b72423          	sw	a1,8(a4)
    1c30:	00b72623          	sw	a1,12(a4)
    1c34:	01070713          	addi	a4,a4,16
    1c38:	fed766e3          	bltu	a4,a3,1c24 <memset+0x24>
    1c3c:	00061463          	bnez	a2,1c44 <memset+0x44>
    1c40:	00008067          	ret
    1c44:	40c306b3          	sub	a3,t1,a2
    1c48:	00269693          	slli	a3,a3,0x2
    1c4c:	00000297          	auipc	t0,0x0
    1c50:	005686b3          	add	a3,a3,t0
    1c54:	00c68067          	jr	12(a3)
    1c58:	00b70723          	sb	a1,14(a4)
    1c5c:	00b706a3          	sb	a1,13(a4)
    1c60:	00b70623          	sb	a1,12(a4)
    1c64:	00b705a3          	sb	a1,11(a4)
    1c68:	00b70523          	sb	a1,10(a4)
    1c6c:	00b704a3          	sb	a1,9(a4)
    1c70:	00b70423          	sb	a1,8(a4)
    1c74:	00b703a3          	sb	a1,7(a4)
    1c78:	00b70323          	sb	a1,6(a4)
    1c7c:	00b702a3          	sb	a1,5(a4)
    1c80:	00b70223          	sb	a1,4(a4)
    1c84:	00b701a3          	sb	a1,3(a4)
    1c88:	00b70123          	sb	a1,2(a4)
    1c8c:	00b700a3          	sb	a1,1(a4)
    1c90:	00b70023          	sb	a1,0(a4)
    1c94:	00008067          	ret
    1c98:	0ff5f593          	andi	a1,a1,255
    1c9c:	00859693          	slli	a3,a1,0x8
    1ca0:	00d5e5b3          	or	a1,a1,a3
    1ca4:	01059693          	slli	a3,a1,0x10
    1ca8:	00d5e5b3          	or	a1,a1,a3
    1cac:	f6dff06f          	j	1c18 <memset+0x18>
    1cb0:	00279693          	slli	a3,a5,0x2
    1cb4:	00000297          	auipc	t0,0x0
    1cb8:	005686b3          	add	a3,a3,t0
    1cbc:	00008293          	mv	t0,ra
    1cc0:	fa0680e7          	jalr	-96(a3)
    1cc4:	00028093          	mv	ra,t0
    1cc8:	ff078793          	addi	a5,a5,-16
    1ccc:	40f70733          	sub	a4,a4,a5
    1cd0:	00f60633          	add	a2,a2,a5
    1cd4:	f6c378e3          	bgeu	t1,a2,1c44 <memset+0x44>
    1cd8:	f3dff06f          	j	1c14 <memset+0x14>

00001cdc <__malloc_lock>:
    1cdc:	00008067          	ret

00001ce0 <__malloc_unlock>:
    1ce0:	00008067          	ret

00001ce4 <srand>:
    1ce4:	82418793          	addi	a5,gp,-2012 # 1ffcc <_impure_ptr>
    1ce8:	0007a783          	lw	a5,0(a5)
    1cec:	0aa7a423          	sw	a0,168(a5)
    1cf0:	0a07a623          	sw	zero,172(a5)
    1cf4:	00008067          	ret

00001cf8 <rand>:
    1cf8:	82418793          	addi	a5,gp,-2012 # 1ffcc <_impure_ptr>
    1cfc:	0007a803          	lw	a6,0(a5)
    1d00:	4c9585b7          	lui	a1,0x4c958
    1d04:	f2d58593          	addi	a1,a1,-211 # 4c957f2d <__freertos_irq_stack_top+0x4c932a3d>
    1d08:	0a882683          	lw	a3,168(a6)
    1d0c:	0ac82703          	lw	a4,172(a6)
    1d10:	02b687b3          	mul	a5,a3,a1
    1d14:	00178613          	addi	a2,a5,1
    1d18:	00f637b3          	sltu	a5,a2,a5
    1d1c:	0ac82423          	sw	a2,168(a6)
    1d20:	5851f637          	lui	a2,0x5851f
    1d24:	42d60613          	addi	a2,a2,1069 # 5851f42d <__freertos_irq_stack_top+0x584f9f3d>
    1d28:	02c68633          	mul	a2,a3,a2
    1d2c:	02b70733          	mul	a4,a4,a1
    1d30:	02b6b6b3          	mulhu	a3,a3,a1
    1d34:	00c70733          	add	a4,a4,a2
    1d38:	00d70733          	add	a4,a4,a3
    1d3c:	00e787b3          	add	a5,a5,a4
    1d40:	00179513          	slli	a0,a5,0x1
    1d44:	0af82623          	sw	a5,172(a6)
    1d48:	00155513          	srli	a0,a0,0x1
    1d4c:	00008067          	ret

00001d50 <_sbrk_r>:
    1d50:	ff010113          	addi	sp,sp,-16
    1d54:	00812423          	sw	s0,8(sp)
    1d58:	00050413          	mv	s0,a0
    1d5c:	00058513          	mv	a0,a1
    1d60:	00022797          	auipc	a5,0x22
    1d64:	7807a423          	sw	zero,1928(a5) # 244e8 <errno>
    1d68:	00112623          	sw	ra,12(sp)
    1d6c:	4251a0ef          	jal	ra,1c990 <_sbrk>
    1d70:	fff00793          	li	a5,-1
    1d74:	00f50a63          	beq	a0,a5,1d88 <_sbrk_r+0x38>
    1d78:	00c12083          	lw	ra,12(sp)
    1d7c:	00812403          	lw	s0,8(sp)
    1d80:	01010113          	addi	sp,sp,16
    1d84:	00008067          	ret
    1d88:	00022797          	auipc	a5,0x22
    1d8c:	76078793          	addi	a5,a5,1888 # 244e8 <errno>
    1d90:	0007a783          	lw	a5,0(a5)
    1d94:	fe0782e3          	beqz	a5,1d78 <_sbrk_r+0x28>
    1d98:	00f42023          	sw	a5,0(s0)
    1d9c:	00c12083          	lw	ra,12(sp)
    1da0:	00812403          	lw	s0,8(sp)
    1da4:	01010113          	addi	sp,sp,16
    1da8:	00008067          	ret

00001dac <strlen>:
    1dac:	00357793          	andi	a5,a0,3
    1db0:	00050713          	mv	a4,a0
    1db4:	04079c63          	bnez	a5,1e0c <strlen+0x60>
    1db8:	7f7f86b7          	lui	a3,0x7f7f8
    1dbc:	f7f68693          	addi	a3,a3,-129 # 7f7f7f7f <__freertos_irq_stack_top+0x7f7d2a8f>
    1dc0:	fff00593          	li	a1,-1
    1dc4:	00470713          	addi	a4,a4,4
    1dc8:	ffc72603          	lw	a2,-4(a4)
    1dcc:	00d677b3          	and	a5,a2,a3
    1dd0:	00d787b3          	add	a5,a5,a3
    1dd4:	00c7e7b3          	or	a5,a5,a2
    1dd8:	00d7e7b3          	or	a5,a5,a3
    1ddc:	feb784e3          	beq	a5,a1,1dc4 <strlen+0x18>
    1de0:	ffc74683          	lbu	a3,-4(a4)
    1de4:	40a707b3          	sub	a5,a4,a0
    1de8:	ffd74603          	lbu	a2,-3(a4)
    1dec:	ffe74503          	lbu	a0,-2(a4)
    1df0:	04068063          	beqz	a3,1e30 <strlen+0x84>
    1df4:	02060a63          	beqz	a2,1e28 <strlen+0x7c>
    1df8:	00a03533          	snez	a0,a0
    1dfc:	00f50533          	add	a0,a0,a5
    1e00:	ffe50513          	addi	a0,a0,-2
    1e04:	00008067          	ret
    1e08:	fa0688e3          	beqz	a3,1db8 <strlen+0xc>
    1e0c:	00074783          	lbu	a5,0(a4)
    1e10:	00170713          	addi	a4,a4,1
    1e14:	00377693          	andi	a3,a4,3
    1e18:	fe0798e3          	bnez	a5,1e08 <strlen+0x5c>
    1e1c:	40a70733          	sub	a4,a4,a0
    1e20:	fff70513          	addi	a0,a4,-1
    1e24:	00008067          	ret
    1e28:	ffd78513          	addi	a0,a5,-3
    1e2c:	00008067          	ret
    1e30:	ffc78513          	addi	a0,a5,-4
    1e34:	00008067          	ret

00001e38 <strncmp>:
    1e38:	0c060a63          	beqz	a2,1f0c <strncmp+0xd4>
    1e3c:	00b567b3          	or	a5,a0,a1
    1e40:	0037f793          	andi	a5,a5,3
    1e44:	08079063          	bnez	a5,1ec4 <strncmp+0x8c>
    1e48:	00300793          	li	a5,3
    1e4c:	06c7fc63          	bgeu	a5,a2,1ec4 <strncmp+0x8c>
    1e50:	00052783          	lw	a5,0(a0)
    1e54:	0005a703          	lw	a4,0(a1)
    1e58:	0ae79e63          	bne	a5,a4,1f14 <strncmp+0xdc>
    1e5c:	ffc60613          	addi	a2,a2,-4
    1e60:	0a060663          	beqz	a2,1f0c <strncmp+0xd4>
    1e64:	feff0337          	lui	t1,0xfeff0
    1e68:	eff30313          	addi	t1,t1,-257 # fefefeff <__freertos_irq_stack_top+0xfefcaa0f>
    1e6c:	00678733          	add	a4,a5,t1
    1e70:	808088b7          	lui	a7,0x80808
    1e74:	fff7c793          	not	a5,a5
    1e78:	00f777b3          	and	a5,a4,a5
    1e7c:	08088893          	addi	a7,a7,128 # 80808080 <__freertos_irq_stack_top+0x807e2b90>
    1e80:	0117f7b3          	and	a5,a5,a7
    1e84:	08079463          	bnez	a5,1f0c <strncmp+0xd4>
    1e88:	00300e13          	li	t3,3
    1e8c:	02c0006f          	j	1eb8 <strncmp+0x80>
    1e90:	00052703          	lw	a4,0(a0)
    1e94:	0005a683          	lw	a3,0(a1)
    1e98:	006707b3          	add	a5,a4,t1
    1e9c:	fff74813          	not	a6,a4
    1ea0:	0107f7b3          	and	a5,a5,a6
    1ea4:	0117f7b3          	and	a5,a5,a7
    1ea8:	06d71663          	bne	a4,a3,1f14 <strncmp+0xdc>
    1eac:	ffc60613          	addi	a2,a2,-4
    1eb0:	04060e63          	beqz	a2,1f0c <strncmp+0xd4>
    1eb4:	04079c63          	bnez	a5,1f0c <strncmp+0xd4>
    1eb8:	00450513          	addi	a0,a0,4
    1ebc:	00458593          	addi	a1,a1,4
    1ec0:	fcce68e3          	bltu	t3,a2,1e90 <strncmp+0x58>
    1ec4:	00054703          	lbu	a4,0(a0)
    1ec8:	0005c683          	lbu	a3,0(a1)
    1ecc:	fff60613          	addi	a2,a2,-1
    1ed0:	02e69a63          	bne	a3,a4,1f04 <strncmp+0xcc>
    1ed4:	02060c63          	beqz	a2,1f0c <strncmp+0xd4>
    1ed8:	02070a63          	beqz	a4,1f0c <strncmp+0xd4>
    1edc:	00150793          	addi	a5,a0,1
    1ee0:	00c50633          	add	a2,a0,a2
    1ee4:	0100006f          	j	1ef4 <strncmp+0xbc>
    1ee8:	02f60263          	beq	a2,a5,1f0c <strncmp+0xd4>
    1eec:	00178793          	addi	a5,a5,1
    1ef0:	00070e63          	beqz	a4,1f0c <strncmp+0xd4>
    1ef4:	00158593          	addi	a1,a1,1
    1ef8:	0007c703          	lbu	a4,0(a5)
    1efc:	0005c683          	lbu	a3,0(a1)
    1f00:	fed704e3          	beq	a4,a3,1ee8 <strncmp+0xb0>
    1f04:	40d70533          	sub	a0,a4,a3
    1f08:	00008067          	ret
    1f0c:	00000513          	li	a0,0
    1f10:	00008067          	ret
    1f14:	00054703          	lbu	a4,0(a0)
    1f18:	0005c683          	lbu	a3,0(a1)
    1f1c:	fff60613          	addi	a2,a2,-1
    1f20:	fae68ce3          	beq	a3,a4,1ed8 <strncmp+0xa0>
    1f24:	fe1ff06f          	j	1f04 <strncmp+0xcc>

00001f28 <_strtol_l.isra.0>:
    1f28:	ff010113          	addi	sp,sp,-16
    1f2c:	00812623          	sw	s0,12(sp)
    1f30:	00912423          	sw	s1,8(sp)
    1f34:	00050393          	mv	t2,a0
    1f38:	00058313          	mv	t1,a1
    1f3c:	0001de17          	auipc	t3,0x1d
    1f40:	605e0e13          	addi	t3,t3,1541 # 1f541 <_ctype_+0x1>
    1f44:	0080006f          	j	1f4c <_strtol_l.isra.0+0x24>
    1f48:	00070313          	mv	t1,a4
    1f4c:	00130713          	addi	a4,t1,1
    1f50:	fff74783          	lbu	a5,-1(a4)
    1f54:	00fe0833          	add	a6,t3,a5
    1f58:	00084883          	lbu	a7,0(a6)
    1f5c:	0088f893          	andi	a7,a7,8
    1f60:	fe0894e3          	bnez	a7,1f48 <_strtol_l.isra.0+0x20>
    1f64:	02d00513          	li	a0,45
    1f68:	10a78863          	beq	a5,a0,2078 <_strtol_l.isra.0+0x150>
    1f6c:	02b00513          	li	a0,43
    1f70:	08a78263          	beq	a5,a0,1ff4 <_strtol_l.isra.0+0xcc>
    1f74:	00078813          	mv	a6,a5
    1f78:	00000413          	li	s0,0
    1f7c:	08068463          	beqz	a3,2004 <_strtol_l.isra.0+0xdc>
    1f80:	01000793          	li	a5,16
    1f84:	00068f93          	mv	t6,a3
    1f88:	10f68463          	beq	a3,a5,2090 <_strtol_l.isra.0+0x168>
    1f8c:	800002b7          	lui	t0,0x80000
    1f90:	00041463          	bnez	s0,1f98 <_strtol_l.isra.0+0x70>
    1f94:	fff2c293          	not	t0,t0
    1f98:	03f2f4b3          	remu	s1,t0,t6
    1f9c:	00000893          	li	a7,0
    1fa0:	00000513          	li	a0,0
    1fa4:	00900313          	li	t1,9
    1fa8:	01900f13          	li	t5,25
    1fac:	fff00e13          	li	t3,-1
    1fb0:	03f2deb3          	divu	t4,t0,t6
    1fb4:	fd080793          	addi	a5,a6,-48
    1fb8:	00f37863          	bgeu	t1,a5,1fc8 <_strtol_l.isra.0+0xa0>
    1fbc:	fbf80793          	addi	a5,a6,-65
    1fc0:	04ff6c63          	bltu	t5,a5,2018 <_strtol_l.isra.0+0xf0>
    1fc4:	fc980793          	addi	a5,a6,-55
    1fc8:	06d7d063          	bge	a5,a3,2028 <_strtol_l.isra.0+0x100>
    1fcc:	01c88e63          	beq	a7,t3,1fe8 <_strtol_l.isra.0+0xc0>
    1fd0:	fff00893          	li	a7,-1
    1fd4:	00aeea63          	bltu	t4,a0,1fe8 <_strtol_l.isra.0+0xc0>
    1fd8:	06ae8e63          	beq	t4,a0,2054 <_strtol_l.isra.0+0x12c>
    1fdc:	00100893          	li	a7,1
    1fe0:	02af8833          	mul	a6,t6,a0
    1fe4:	01078533          	add	a0,a5,a6
    1fe8:	00170713          	addi	a4,a4,1
    1fec:	fff74803          	lbu	a6,-1(a4)
    1ff0:	fc5ff06f          	j	1fb4 <_strtol_l.isra.0+0x8c>
    1ff4:	00074803          	lbu	a6,0(a4)
    1ff8:	00000413          	li	s0,0
    1ffc:	00230713          	addi	a4,t1,2
    2000:	f80690e3          	bnez	a3,1f80 <_strtol_l.isra.0+0x58>
    2004:	03000793          	li	a5,48
    2008:	0af80e63          	beq	a6,a5,20c4 <_strtol_l.isra.0+0x19c>
    200c:	00a00f93          	li	t6,10
    2010:	00a00693          	li	a3,10
    2014:	f79ff06f          	j	1f8c <_strtol_l.isra.0+0x64>
    2018:	f9f80793          	addi	a5,a6,-97
    201c:	00ff6663          	bltu	t5,a5,2028 <_strtol_l.isra.0+0x100>
    2020:	fa980793          	addi	a5,a6,-87
    2024:	fad7c4e3          	blt	a5,a3,1fcc <_strtol_l.isra.0+0xa4>
    2028:	fff00793          	li	a5,-1
    202c:	02f88863          	beq	a7,a5,205c <_strtol_l.isra.0+0x134>
    2030:	00040463          	beqz	s0,2038 <_strtol_l.isra.0+0x110>
    2034:	40a00533          	neg	a0,a0
    2038:	00060663          	beqz	a2,2044 <_strtol_l.isra.0+0x11c>
    203c:	04089663          	bnez	a7,2088 <_strtol_l.isra.0+0x160>
    2040:	00b62023          	sw	a1,0(a2)
    2044:	00c12403          	lw	s0,12(sp)
    2048:	00812483          	lw	s1,8(sp)
    204c:	01010113          	addi	sp,sp,16
    2050:	00008067          	ret
    2054:	f8f4cae3          	blt	s1,a5,1fe8 <_strtol_l.isra.0+0xc0>
    2058:	f85ff06f          	j	1fdc <_strtol_l.isra.0+0xb4>
    205c:	02200793          	li	a5,34
    2060:	00f3a023          	sw	a5,0(t2)
    2064:	00028513          	mv	a0,t0
    2068:	fc060ee3          	beqz	a2,2044 <_strtol_l.isra.0+0x11c>
    206c:	fff70593          	addi	a1,a4,-1
    2070:	00028513          	mv	a0,t0
    2074:	fcdff06f          	j	2040 <_strtol_l.isra.0+0x118>
    2078:	00074803          	lbu	a6,0(a4)
    207c:	00100413          	li	s0,1
    2080:	00230713          	addi	a4,t1,2
    2084:	ef9ff06f          	j	1f7c <_strtol_l.isra.0+0x54>
    2088:	00050293          	mv	t0,a0
    208c:	fe1ff06f          	j	206c <_strtol_l.isra.0+0x144>
    2090:	03000793          	li	a5,48
    2094:	00f81a63          	bne	a6,a5,20a8 <_strtol_l.isra.0+0x180>
    2098:	00074783          	lbu	a5,0(a4)
    209c:	05800513          	li	a0,88
    20a0:	0df7f793          	andi	a5,a5,223
    20a4:	00a78663          	beq	a5,a0,20b0 <_strtol_l.isra.0+0x188>
    20a8:	01000f93          	li	t6,16
    20ac:	ee1ff06f          	j	1f8c <_strtol_l.isra.0+0x64>
    20b0:	00174803          	lbu	a6,1(a4)
    20b4:	01000f93          	li	t6,16
    20b8:	00270713          	addi	a4,a4,2
    20bc:	01000693          	li	a3,16
    20c0:	ecdff06f          	j	1f8c <_strtol_l.isra.0+0x64>
    20c4:	00074783          	lbu	a5,0(a4)
    20c8:	05800693          	li	a3,88
    20cc:	0df7f793          	andi	a5,a5,223
    20d0:	fed780e3          	beq	a5,a3,20b0 <_strtol_l.isra.0+0x188>
    20d4:	00800f93          	li	t6,8
    20d8:	00800693          	li	a3,8
    20dc:	eb1ff06f          	j	1f8c <_strtol_l.isra.0+0x64>

000020e0 <_strtol_r>:
    20e0:	e49ff06f          	j	1f28 <_strtol_l.isra.0>

000020e4 <strtol_l>:
    20e4:	82418793          	addi	a5,gp,-2012 # 1ffcc <_impure_ptr>
    20e8:	00060693          	mv	a3,a2
    20ec:	00058613          	mv	a2,a1
    20f0:	00050593          	mv	a1,a0
    20f4:	0007a503          	lw	a0,0(a5)
    20f8:	e31ff06f          	j	1f28 <_strtol_l.isra.0>

000020fc <strtol>:
    20fc:	82418793          	addi	a5,gp,-2012 # 1ffcc <_impure_ptr>
    2100:	00060693          	mv	a3,a2
    2104:	00058613          	mv	a2,a1
    2108:	00050593          	mv	a1,a0
    210c:	0007a503          	lw	a0,0(a5)
    2110:	e19ff06f          	j	1f28 <_strtol_l.isra.0>

00002114 <_malloc_trim_r>:
    2114:	fe010113          	addi	sp,sp,-32
    2118:	00812c23          	sw	s0,24(sp)
    211c:	00912a23          	sw	s1,20(sp)
    2120:	01212823          	sw	s2,16(sp)
    2124:	01312623          	sw	s3,12(sp)
    2128:	00058413          	mv	s0,a1
    212c:	00112e23          	sw	ra,28(sp)
    2130:	0001d997          	auipc	s3,0x1d
    2134:	65498993          	addi	s3,s3,1620 # 1f784 <__malloc_av_>
    2138:	00050913          	mv	s2,a0
    213c:	ba1ff0ef          	jal	ra,1cdc <__malloc_lock>
    2140:	0089a683          	lw	a3,8(s3)
    2144:	00001737          	lui	a4,0x1
    2148:	fef70793          	addi	a5,a4,-17 # fef <regnum_t6+0xfd0>
    214c:	0046a483          	lw	s1,4(a3)
    2150:	40878433          	sub	s0,a5,s0
    2154:	ffc4f493          	andi	s1,s1,-4
    2158:	00940433          	add	s0,s0,s1
    215c:	00c45413          	srli	s0,s0,0xc
    2160:	fff40413          	addi	s0,s0,-1
    2164:	00c41413          	slli	s0,s0,0xc
    2168:	00e44e63          	blt	s0,a4,2184 <_malloc_trim_r+0x70>
    216c:	00000593          	li	a1,0
    2170:	00090513          	mv	a0,s2
    2174:	bddff0ef          	jal	ra,1d50 <_sbrk_r>
    2178:	0089a783          	lw	a5,8(s3)
    217c:	009787b3          	add	a5,a5,s1
    2180:	02f50663          	beq	a0,a5,21ac <_malloc_trim_r+0x98>
    2184:	00090513          	mv	a0,s2
    2188:	b59ff0ef          	jal	ra,1ce0 <__malloc_unlock>
    218c:	01c12083          	lw	ra,28(sp)
    2190:	01812403          	lw	s0,24(sp)
    2194:	01412483          	lw	s1,20(sp)
    2198:	01012903          	lw	s2,16(sp)
    219c:	00c12983          	lw	s3,12(sp)
    21a0:	00000513          	li	a0,0
    21a4:	02010113          	addi	sp,sp,32
    21a8:	00008067          	ret
    21ac:	408005b3          	neg	a1,s0
    21b0:	00090513          	mv	a0,s2
    21b4:	b9dff0ef          	jal	ra,1d50 <_sbrk_r>
    21b8:	fff00793          	li	a5,-1
    21bc:	04f50663          	beq	a0,a5,2208 <_malloc_trim_r+0xf4>
    21c0:	ba018793          	addi	a5,gp,-1120 # 20348 <__malloc_current_mallinfo>
    21c4:	0007a783          	lw	a5,0(a5)
    21c8:	0089a703          	lw	a4,8(s3)
    21cc:	408484b3          	sub	s1,s1,s0
    21d0:	0014e493          	ori	s1,s1,1
    21d4:	40878433          	sub	s0,a5,s0
    21d8:	00090513          	mv	a0,s2
    21dc:	00972223          	sw	s1,4(a4)
    21e0:	ba81a023          	sw	s0,-1120(gp) # 20348 <__malloc_current_mallinfo>
    21e4:	afdff0ef          	jal	ra,1ce0 <__malloc_unlock>
    21e8:	01c12083          	lw	ra,28(sp)
    21ec:	01812403          	lw	s0,24(sp)
    21f0:	01412483          	lw	s1,20(sp)
    21f4:	01012903          	lw	s2,16(sp)
    21f8:	00c12983          	lw	s3,12(sp)
    21fc:	00100513          	li	a0,1
    2200:	02010113          	addi	sp,sp,32
    2204:	00008067          	ret
    2208:	00000593          	li	a1,0
    220c:	00090513          	mv	a0,s2
    2210:	b41ff0ef          	jal	ra,1d50 <_sbrk_r>
    2214:	0089a703          	lw	a4,8(s3)
    2218:	00f00693          	li	a3,15
    221c:	40e507b3          	sub	a5,a0,a4
    2220:	f6f6d2e3          	bge	a3,a5,2184 <_malloc_trim_r+0x70>
    2224:	81c18693          	addi	a3,gp,-2020 # 1ffc4 <__malloc_sbrk_base>
    2228:	0006a683          	lw	a3,0(a3)
    222c:	0017e793          	ori	a5,a5,1
    2230:	00f72223          	sw	a5,4(a4)
    2234:	40d50533          	sub	a0,a0,a3
    2238:	baa1a023          	sw	a0,-1120(gp) # 20348 <__malloc_current_mallinfo>
    223c:	f49ff06f          	j	2184 <_malloc_trim_r+0x70>

00002240 <_free_r>:
    2240:	12058e63          	beqz	a1,237c <_free_r+0x13c>
    2244:	ff010113          	addi	sp,sp,-16
    2248:	00812423          	sw	s0,8(sp)
    224c:	00912223          	sw	s1,4(sp)
    2250:	00058413          	mv	s0,a1
    2254:	00050493          	mv	s1,a0
    2258:	00112623          	sw	ra,12(sp)
    225c:	a81ff0ef          	jal	ra,1cdc <__malloc_lock>
    2260:	ffc42583          	lw	a1,-4(s0)
    2264:	ff840713          	addi	a4,s0,-8
    2268:	0001d517          	auipc	a0,0x1d
    226c:	51c50513          	addi	a0,a0,1308 # 1f784 <__malloc_av_>
    2270:	ffe5f793          	andi	a5,a1,-2
    2274:	00f70633          	add	a2,a4,a5
    2278:	00462683          	lw	a3,4(a2)
    227c:	00852803          	lw	a6,8(a0)
    2280:	ffc6f693          	andi	a3,a3,-4
    2284:	1ac80463          	beq	a6,a2,242c <_free_r+0x1ec>
    2288:	00d62223          	sw	a3,4(a2)
    228c:	0015f593          	andi	a1,a1,1
    2290:	00d60833          	add	a6,a2,a3
    2294:	0a059463          	bnez	a1,233c <_free_r+0xfc>
    2298:	ff842303          	lw	t1,-8(s0)
    229c:	00482583          	lw	a1,4(a6)
    22a0:	0001d897          	auipc	a7,0x1d
    22a4:	4ec88893          	addi	a7,a7,1260 # 1f78c <__malloc_av_+0x8>
    22a8:	40670733          	sub	a4,a4,t1
    22ac:	00872803          	lw	a6,8(a4)
    22b0:	006787b3          	add	a5,a5,t1
    22b4:	0015f593          	andi	a1,a1,1
    22b8:	15180463          	beq	a6,a7,2400 <_free_r+0x1c0>
    22bc:	00c72303          	lw	t1,12(a4)
    22c0:	00682623          	sw	t1,12(a6)
    22c4:	01032423          	sw	a6,8(t1)
    22c8:	1e058063          	beqz	a1,24a8 <_free_r+0x268>
    22cc:	0017e693          	ori	a3,a5,1
    22d0:	00d72223          	sw	a3,4(a4)
    22d4:	00f62023          	sw	a5,0(a2)
    22d8:	1ff00693          	li	a3,511
    22dc:	0af6ec63          	bltu	a3,a5,2394 <_free_r+0x154>
    22e0:	0037d793          	srli	a5,a5,0x3
    22e4:	00178693          	addi	a3,a5,1
    22e8:	00369693          	slli	a3,a3,0x3
    22ec:	00452583          	lw	a1,4(a0)
    22f0:	00d50533          	add	a0,a0,a3
    22f4:	00052603          	lw	a2,0(a0)
    22f8:	4027d693          	srai	a3,a5,0x2
    22fc:	00100793          	li	a5,1
    2300:	00d797b3          	sll	a5,a5,a3
    2304:	00b7e7b3          	or	a5,a5,a1
    2308:	ff850693          	addi	a3,a0,-8
    230c:	00d72623          	sw	a3,12(a4)
    2310:	00c72423          	sw	a2,8(a4)
    2314:	0001d697          	auipc	a3,0x1d
    2318:	46f6aa23          	sw	a5,1140(a3) # 1f788 <__malloc_av_+0x4>
    231c:	00e52023          	sw	a4,0(a0)
    2320:	00e62623          	sw	a4,12(a2)
    2324:	00812403          	lw	s0,8(sp)
    2328:	00c12083          	lw	ra,12(sp)
    232c:	00048513          	mv	a0,s1
    2330:	00412483          	lw	s1,4(sp)
    2334:	01010113          	addi	sp,sp,16
    2338:	9a9ff06f          	j	1ce0 <__malloc_unlock>
    233c:	00482583          	lw	a1,4(a6)
    2340:	0015f593          	andi	a1,a1,1
    2344:	02059e63          	bnez	a1,2380 <_free_r+0x140>
    2348:	00d787b3          	add	a5,a5,a3
    234c:	0001d897          	auipc	a7,0x1d
    2350:	44088893          	addi	a7,a7,1088 # 1f78c <__malloc_av_+0x8>
    2354:	00862683          	lw	a3,8(a2)
    2358:	0017e813          	ori	a6,a5,1
    235c:	00f705b3          	add	a1,a4,a5
    2360:	17168063          	beq	a3,a7,24c0 <_free_r+0x280>
    2364:	00c62603          	lw	a2,12(a2)
    2368:	00c6a623          	sw	a2,12(a3)
    236c:	00d62423          	sw	a3,8(a2)
    2370:	01072223          	sw	a6,4(a4)
    2374:	00f5a023          	sw	a5,0(a1)
    2378:	f61ff06f          	j	22d8 <_free_r+0x98>
    237c:	00008067          	ret
    2380:	0017e693          	ori	a3,a5,1
    2384:	fed42e23          	sw	a3,-4(s0)
    2388:	00f62023          	sw	a5,0(a2)
    238c:	1ff00693          	li	a3,511
    2390:	f4f6f8e3          	bgeu	a3,a5,22e0 <_free_r+0xa0>
    2394:	0097d693          	srli	a3,a5,0x9
    2398:	00400613          	li	a2,4
    239c:	0ed66463          	bltu	a2,a3,2484 <_free_r+0x244>
    23a0:	0067d693          	srli	a3,a5,0x6
    23a4:	03968593          	addi	a1,a3,57
    23a8:	03868613          	addi	a2,a3,56
    23ac:	00359593          	slli	a1,a1,0x3
    23b0:	00b505b3          	add	a1,a0,a1
    23b4:	0005a683          	lw	a3,0(a1)
    23b8:	ff858593          	addi	a1,a1,-8
    23bc:	12d58463          	beq	a1,a3,24e4 <_free_r+0x2a4>
    23c0:	0046a603          	lw	a2,4(a3)
    23c4:	ffc67613          	andi	a2,a2,-4
    23c8:	00c7f663          	bgeu	a5,a2,23d4 <_free_r+0x194>
    23cc:	0086a683          	lw	a3,8(a3)
    23d0:	fed598e3          	bne	a1,a3,23c0 <_free_r+0x180>
    23d4:	00c6a583          	lw	a1,12(a3)
    23d8:	00b72623          	sw	a1,12(a4)
    23dc:	00d72423          	sw	a3,8(a4)
    23e0:	00812403          	lw	s0,8(sp)
    23e4:	00e5a423          	sw	a4,8(a1)
    23e8:	00c12083          	lw	ra,12(sp)
    23ec:	00048513          	mv	a0,s1
    23f0:	00412483          	lw	s1,4(sp)
    23f4:	00e6a623          	sw	a4,12(a3)
    23f8:	01010113          	addi	sp,sp,16
    23fc:	8e5ff06f          	j	1ce0 <__malloc_unlock>
    2400:	14059463          	bnez	a1,2548 <_free_r+0x308>
    2404:	00862583          	lw	a1,8(a2)
    2408:	00c62603          	lw	a2,12(a2)
    240c:	00f687b3          	add	a5,a3,a5
    2410:	0017e693          	ori	a3,a5,1
    2414:	00c5a623          	sw	a2,12(a1)
    2418:	00b62423          	sw	a1,8(a2)
    241c:	00d72223          	sw	a3,4(a4)
    2420:	00f70733          	add	a4,a4,a5
    2424:	00f72023          	sw	a5,0(a4)
    2428:	efdff06f          	j	2324 <_free_r+0xe4>
    242c:	0015f593          	andi	a1,a1,1
    2430:	00d787b3          	add	a5,a5,a3
    2434:	02059063          	bnez	a1,2454 <_free_r+0x214>
    2438:	ff842583          	lw	a1,-8(s0)
    243c:	40b70733          	sub	a4,a4,a1
    2440:	00c72683          	lw	a3,12(a4)
    2444:	00872603          	lw	a2,8(a4)
    2448:	00b787b3          	add	a5,a5,a1
    244c:	00d62623          	sw	a3,12(a2)
    2450:	00c6a423          	sw	a2,8(a3)
    2454:	82018693          	addi	a3,gp,-2016 # 1ffc8 <__malloc_trim_threshold>
    2458:	0017e613          	ori	a2,a5,1
    245c:	0006a683          	lw	a3,0(a3)
    2460:	00c72223          	sw	a2,4(a4)
    2464:	0001d617          	auipc	a2,0x1d
    2468:	32e62423          	sw	a4,808(a2) # 1f78c <__malloc_av_+0x8>
    246c:	ead7ece3          	bltu	a5,a3,2324 <_free_r+0xe4>
    2470:	96018793          	addi	a5,gp,-1696 # 20108 <__malloc_top_pad>
    2474:	0007a583          	lw	a1,0(a5)
    2478:	00048513          	mv	a0,s1
    247c:	c99ff0ef          	jal	ra,2114 <_malloc_trim_r>
    2480:	ea5ff06f          	j	2324 <_free_r+0xe4>
    2484:	01400613          	li	a2,20
    2488:	02d67463          	bgeu	a2,a3,24b0 <_free_r+0x270>
    248c:	05400613          	li	a2,84
    2490:	06d66a63          	bltu	a2,a3,2504 <_free_r+0x2c4>
    2494:	00c7d693          	srli	a3,a5,0xc
    2498:	06f68593          	addi	a1,a3,111
    249c:	06e68613          	addi	a2,a3,110
    24a0:	00359593          	slli	a1,a1,0x3
    24a4:	f0dff06f          	j	23b0 <_free_r+0x170>
    24a8:	00d787b3          	add	a5,a5,a3
    24ac:	ea9ff06f          	j	2354 <_free_r+0x114>
    24b0:	05c68593          	addi	a1,a3,92
    24b4:	05b68613          	addi	a2,a3,91
    24b8:	00359593          	slli	a1,a1,0x3
    24bc:	ef5ff06f          	j	23b0 <_free_r+0x170>
    24c0:	0001d697          	auipc	a3,0x1d
    24c4:	2ce6ac23          	sw	a4,728(a3) # 1f798 <__malloc_av_+0x14>
    24c8:	0001d697          	auipc	a3,0x1d
    24cc:	2ce6a623          	sw	a4,716(a3) # 1f794 <__malloc_av_+0x10>
    24d0:	01172623          	sw	a7,12(a4)
    24d4:	01172423          	sw	a7,8(a4)
    24d8:	01072223          	sw	a6,4(a4)
    24dc:	00f5a023          	sw	a5,0(a1)
    24e0:	e45ff06f          	j	2324 <_free_r+0xe4>
    24e4:	00452503          	lw	a0,4(a0)
    24e8:	00100793          	li	a5,1
    24ec:	40265613          	srai	a2,a2,0x2
    24f0:	00c79633          	sll	a2,a5,a2
    24f4:	00a66633          	or	a2,a2,a0
    24f8:	0001d797          	auipc	a5,0x1d
    24fc:	28c7a823          	sw	a2,656(a5) # 1f788 <__malloc_av_+0x4>
    2500:	ed9ff06f          	j	23d8 <_free_r+0x198>
    2504:	15400613          	li	a2,340
    2508:	00d66c63          	bltu	a2,a3,2520 <_free_r+0x2e0>
    250c:	00f7d693          	srli	a3,a5,0xf
    2510:	07868593          	addi	a1,a3,120
    2514:	07768613          	addi	a2,a3,119
    2518:	00359593          	slli	a1,a1,0x3
    251c:	e95ff06f          	j	23b0 <_free_r+0x170>
    2520:	55400613          	li	a2,1364
    2524:	00d66c63          	bltu	a2,a3,253c <_free_r+0x2fc>
    2528:	0127d693          	srli	a3,a5,0x12
    252c:	07d68593          	addi	a1,a3,125
    2530:	07c68613          	addi	a2,a3,124
    2534:	00359593          	slli	a1,a1,0x3
    2538:	e79ff06f          	j	23b0 <_free_r+0x170>
    253c:	3f800593          	li	a1,1016
    2540:	07e00613          	li	a2,126
    2544:	e6dff06f          	j	23b0 <_free_r+0x170>
    2548:	0017e693          	ori	a3,a5,1
    254c:	00d72223          	sw	a3,4(a4)
    2550:	00f62023          	sw	a5,0(a2)
    2554:	dd1ff06f          	j	2324 <_free_r+0xe4>

00002558 <cleanup_glue>:
    2558:	ff010113          	addi	sp,sp,-16
    255c:	00812423          	sw	s0,8(sp)
    2560:	00058413          	mv	s0,a1
    2564:	0005a583          	lw	a1,0(a1)
    2568:	00912223          	sw	s1,4(sp)
    256c:	00112623          	sw	ra,12(sp)
    2570:	00050493          	mv	s1,a0
    2574:	00058463          	beqz	a1,257c <cleanup_glue+0x24>
    2578:	fe1ff0ef          	jal	ra,2558 <cleanup_glue>
    257c:	00040593          	mv	a1,s0
    2580:	00812403          	lw	s0,8(sp)
    2584:	00c12083          	lw	ra,12(sp)
    2588:	00048513          	mv	a0,s1
    258c:	00412483          	lw	s1,4(sp)
    2590:	01010113          	addi	sp,sp,16
    2594:	cadff06f          	j	2240 <_free_r>

00002598 <_reclaim_reent>:
    2598:	82418793          	addi	a5,gp,-2012 # 1ffcc <_impure_ptr>
    259c:	0007a783          	lw	a5,0(a5)
    25a0:	10a78263          	beq	a5,a0,26a4 <_reclaim_reent+0x10c>
    25a4:	04c52703          	lw	a4,76(a0)
    25a8:	fe010113          	addi	sp,sp,-32
    25ac:	00912a23          	sw	s1,20(sp)
    25b0:	00112e23          	sw	ra,28(sp)
    25b4:	00812c23          	sw	s0,24(sp)
    25b8:	01212823          	sw	s2,16(sp)
    25bc:	01312623          	sw	s3,12(sp)
    25c0:	00050493          	mv	s1,a0
    25c4:	04070263          	beqz	a4,2608 <_reclaim_reent+0x70>
    25c8:	00000913          	li	s2,0
    25cc:	08000993          	li	s3,128
    25d0:	012707b3          	add	a5,a4,s2
    25d4:	0007a583          	lw	a1,0(a5)
    25d8:	00058e63          	beqz	a1,25f4 <_reclaim_reent+0x5c>
    25dc:	0005a403          	lw	s0,0(a1)
    25e0:	00048513          	mv	a0,s1
    25e4:	c5dff0ef          	jal	ra,2240 <_free_r>
    25e8:	00040593          	mv	a1,s0
    25ec:	fe0418e3          	bnez	s0,25dc <_reclaim_reent+0x44>
    25f0:	04c4a703          	lw	a4,76(s1)
    25f4:	00490913          	addi	s2,s2,4
    25f8:	fd391ce3          	bne	s2,s3,25d0 <_reclaim_reent+0x38>
    25fc:	00070593          	mv	a1,a4
    2600:	00048513          	mv	a0,s1
    2604:	c3dff0ef          	jal	ra,2240 <_free_r>
    2608:	0404a583          	lw	a1,64(s1)
    260c:	00058663          	beqz	a1,2618 <_reclaim_reent+0x80>
    2610:	00048513          	mv	a0,s1
    2614:	c2dff0ef          	jal	ra,2240 <_free_r>
    2618:	1484a583          	lw	a1,328(s1)
    261c:	02058063          	beqz	a1,263c <_reclaim_reent+0xa4>
    2620:	14c48913          	addi	s2,s1,332
    2624:	01258c63          	beq	a1,s2,263c <_reclaim_reent+0xa4>
    2628:	0005a403          	lw	s0,0(a1)
    262c:	00048513          	mv	a0,s1
    2630:	c11ff0ef          	jal	ra,2240 <_free_r>
    2634:	00040593          	mv	a1,s0
    2638:	fe8918e3          	bne	s2,s0,2628 <_reclaim_reent+0x90>
    263c:	0544a583          	lw	a1,84(s1)
    2640:	00058663          	beqz	a1,264c <_reclaim_reent+0xb4>
    2644:	00048513          	mv	a0,s1
    2648:	bf9ff0ef          	jal	ra,2240 <_free_r>
    264c:	0384a783          	lw	a5,56(s1)
    2650:	02078c63          	beqz	a5,2688 <_reclaim_reent+0xf0>
    2654:	03c4a783          	lw	a5,60(s1)
    2658:	00048513          	mv	a0,s1
    265c:	000780e7          	jalr	a5
    2660:	2e04a583          	lw	a1,736(s1)
    2664:	02058263          	beqz	a1,2688 <_reclaim_reent+0xf0>
    2668:	01812403          	lw	s0,24(sp)
    266c:	01c12083          	lw	ra,28(sp)
    2670:	01012903          	lw	s2,16(sp)
    2674:	00c12983          	lw	s3,12(sp)
    2678:	00048513          	mv	a0,s1
    267c:	01412483          	lw	s1,20(sp)
    2680:	02010113          	addi	sp,sp,32
    2684:	ed5ff06f          	j	2558 <cleanup_glue>
    2688:	01c12083          	lw	ra,28(sp)
    268c:	01812403          	lw	s0,24(sp)
    2690:	01412483          	lw	s1,20(sp)
    2694:	01012903          	lw	s2,16(sp)
    2698:	00c12983          	lw	s3,12(sp)
    269c:	02010113          	addi	sp,sp,32
    26a0:	00008067          	ret
    26a4:	00008067          	ret

000026a8 <uart_writeAvailability>:
#include "type.h"
#include "soc.h"


    static inline u32 read_u32(u32 address){
        return *((volatile u32*) address);
    26a8:	00452503          	lw	a0,4(a0)
        enum UartStop stop;
        u32 clockDivider;
    } Uart_Config;
    
    static u32 uart_writeAvailability(u32 reg){
        return (read_u32(reg + UART_STATUS) >> 16) & 0xFF;
    26ac:	01055513          	srli	a0,a0,0x10
    }
    26b0:	0ff57513          	andi	a0,a0,255
    26b4:	00008067          	ret

000026b8 <uart_write>:
    static u32 uart_readOccupancy(u32 reg){
        return read_u32(reg + UART_STATUS) >> 24;
    }
    
    static void uart_write(u32 reg, char data){
    26b8:	ff010113          	addi	sp,sp,-16
    26bc:	00112623          	sw	ra,12(sp)
    26c0:	00812423          	sw	s0,8(sp)
    26c4:	00912223          	sw	s1,4(sp)
    26c8:	00050413          	mv	s0,a0
    26cc:	00058493          	mv	s1,a1
        while(uart_writeAvailability(reg) == 0);
    26d0:	00040513          	mv	a0,s0
    26d4:	fd5ff0ef          	jal	ra,26a8 <uart_writeAvailability>
    26d8:	fe050ce3          	beqz	a0,26d0 <uart_write+0x18>
    }
    
    static inline void write_u32(u32 data, u32 address){
        *((volatile u32*) address) = data;
    26dc:	00942023          	sw	s1,0(s0)
        write_u32(data, reg + UART_DATA);
    }
    26e0:	00c12083          	lw	ra,12(sp)
    26e4:	00812403          	lw	s0,8(sp)
    26e8:	00412483          	lw	s1,4(sp)
    26ec:	01010113          	addi	sp,sp,16
    26f0:	00008067          	ret

000026f4 <clint_getTime>:
        write_u32(0xFFFFFFFF, p + 4);
        write_u32(cmp, p + 0);
        write_u32(cmp >> 32, p + 4);
    }
    
    static u64 clint_getTime(u32 p){
    26f4:	00050693          	mv	a3,a0
    readReg_u32 (clint_getTimeHigh, CLINT_TIME_ADDR+4)
    26f8:	0000c7b7          	lui	a5,0xc
    26fc:	ffc78713          	addi	a4,a5,-4 # bffc <netif_add+0x4>
    2700:	00e68733          	add	a4,a3,a4
        return *((volatile u32*) address);
    2704:	00072583          	lw	a1,0(a4)
    readReg_u32 (clint_getTimeLow , CLINT_TIME_ADDR)
    2708:	ff878793          	addi	a5,a5,-8
    270c:	00f687b3          	add	a5,a3,a5
    2710:	0007a503          	lw	a0,0(a5)
    2714:	00072783          	lw	a5,0(a4)
    
        /* Likewise, must guard against rollover when reading */
        do {
            hi = clint_getTimeHigh(p);
            lo = clint_getTimeLow(p);
        } while (clint_getTimeHigh(p) != hi);
    2718:	feb790e3          	bne	a5,a1,26f8 <clint_getTime+0x4>
    
        return (((u64)hi) << 32) | lo;
    }
    271c:	00008067          	ret

00002720 <bsp_printHex>:
#define ENABLE_BRIDGE_FULL_TO_LITE          1 // If this is enabled, bsp_printf_full can be called with bsp_printf. Enabling both ENABLE_BSP_PRINTF and ENABLE_BSP_PRINTF_FULL, bsp_printf_full will be remained as bsp_printf_full. Default: Enable
#define ENABLE_PRINTF_WARNING               1 // Print warning when the specifier not supported. Default: Enable

    //bsp_printHex is used in BSP_PRINTF
    static void bsp_printHex(uint32_t val)
    {
    2720:	ff010113          	addi	sp,sp,-16
    2724:	00112623          	sw	ra,12(sp)
    2728:	00812423          	sw	s0,8(sp)
    272c:	00912223          	sw	s1,4(sp)
    2730:	00050493          	mv	s1,a0
        uint32_t digits;
        digits =8;

        for (int i = (4*digits)-4; i >= 0; i -= 4) {
    2734:	01c00413          	li	s0,28
    2738:	0280006f          	j	2760 <bsp_printHex+0x40>
            uart_write(BSP_UART_TERMINAL, "0123456789ABCDEF"[(val >> i) % 16]);
    273c:	0084d7b3          	srl	a5,s1,s0
    2740:	00f7f713          	andi	a4,a5,15
    2744:	0001d7b7          	lui	a5,0x1d
    2748:	aa878793          	addi	a5,a5,-1368 # 1caa8 <packet_anomaly_detector_means+0x18>
    274c:	00e787b3          	add	a5,a5,a4
    2750:	0007c583          	lbu	a1,0(a5)
    2754:	f8010537          	lui	a0,0xf8010
    2758:	f61ff0ef          	jal	ra,26b8 <uart_write>
        for (int i = (4*digits)-4; i >= 0; i -= 4) {
    275c:	ffc40413          	addi	s0,s0,-4
    2760:	fc045ee3          	bgez	s0,273c <bsp_printHex+0x1c>
        }
    }
    2764:	00c12083          	lw	ra,12(sp)
    2768:	00812403          	lw	s0,8(sp)
    276c:	00412483          	lw	s1,4(sp)
    2770:	01010113          	addi	sp,sp,16
    2774:	00008067          	ret

00002778 <bsp_printHex_lower>:

    static void bsp_printHex_lower(uint32_t val)
        {
    2778:	ff010113          	addi	sp,sp,-16
    277c:	00112623          	sw	ra,12(sp)
    2780:	00812423          	sw	s0,8(sp)
    2784:	00912223          	sw	s1,4(sp)
    2788:	00050493          	mv	s1,a0
            uint32_t digits;
            digits =8;

            for (int i = (4*digits)-4; i >= 0; i -= 4) {
    278c:	01c00413          	li	s0,28
    2790:	0280006f          	j	27b8 <bsp_printHex_lower+0x40>
                uart_write(BSP_UART_TERMINAL, "0123456789abcdef"[(val >> i) % 16]);
    2794:	0084d7b3          	srl	a5,s1,s0
    2798:	00f7f713          	andi	a4,a5,15
    279c:	0001d7b7          	lui	a5,0x1d
    27a0:	abc78793          	addi	a5,a5,-1348 # 1cabc <packet_anomaly_detector_means+0x2c>
    27a4:	00e787b3          	add	a5,a5,a4
    27a8:	0007c583          	lbu	a1,0(a5)
    27ac:	f8010537          	lui	a0,0xf8010
    27b0:	f09ff0ef          	jal	ra,26b8 <uart_write>
            for (int i = (4*digits)-4; i >= 0; i -= 4) {
    27b4:	ffc40413          	addi	s0,s0,-4
    27b8:	fc045ee3          	bgez	s0,2794 <bsp_printHex_lower+0x1c>
            }
        }
    27bc:	00c12083          	lw	ra,12(sp)
    27c0:	00812403          	lw	s0,8(sp)
    27c4:	00412483          	lw	s1,4(sp)
    27c8:	01010113          	addi	sp,sp,16
    27cc:	00008067          	ret

000027d0 <bsp_printf_c>:
    }

    #endif //#if (ENABLE_FLOATING_POINT_SUPPORT)

    static void bsp_printf_c(int c)
    {
    27d0:	ff010113          	addi	sp,sp,-16
    27d4:	00112623          	sw	ra,12(sp)
        bsp_putChar(c);
    27d8:	0ff57593          	andi	a1,a0,255
    27dc:	f8010537          	lui	a0,0xf8010
    27e0:	ed9ff0ef          	jal	ra,26b8 <uart_write>
    }
    27e4:	00c12083          	lw	ra,12(sp)
    27e8:	01010113          	addi	sp,sp,16
    27ec:	00008067          	ret

000027f0 <bsp_printf_s>:
    
    static void bsp_printf_s(char *p)
    {
    27f0:	ff010113          	addi	sp,sp,-16
    27f4:	00112623          	sw	ra,12(sp)
    27f8:	00812423          	sw	s0,8(sp)
    27fc:	00050413          	mv	s0,a0
        while (*p)
    2800:	00044583          	lbu	a1,0(s0)
    2804:	00058a63          	beqz	a1,2818 <bsp_printf_s+0x28>
            bsp_putChar(*(p++));
    2808:	00140413          	addi	s0,s0,1
    280c:	f8010537          	lui	a0,0xf8010
    2810:	ea9ff0ef          	jal	ra,26b8 <uart_write>
    2814:	fedff06f          	j	2800 <bsp_printf_s+0x10>
    }
    2818:	00c12083          	lw	ra,12(sp)
    281c:	00812403          	lw	s0,8(sp)
    2820:	01010113          	addi	sp,sp,16
    2824:	00008067          	ret

00002828 <bsp_printf_d>:
    
    static void bsp_printf_d(int val)
    {
    2828:	fd010113          	addi	sp,sp,-48
    282c:	02112623          	sw	ra,44(sp)
    2830:	02812423          	sw	s0,40(sp)
    2834:	02912223          	sw	s1,36(sp)
    2838:	00050493          	mv	s1,a0
        char buffer[32];
        char *p = buffer;
        if (val < 0) {
    283c:	00054663          	bltz	a0,2848 <bsp_printf_d+0x20>
    {
    2840:	00010413          	mv	s0,sp
    2844:	02c0006f          	j	2870 <bsp_printf_d+0x48>
            bsp_printf_c('-');
    2848:	02d00513          	li	a0,45
    284c:	f85ff0ef          	jal	ra,27d0 <bsp_printf_c>
            val = -val;
    2850:	409004b3          	neg	s1,s1
    2854:	fedff06f          	j	2840 <bsp_printf_d+0x18>
        }
        while (val || p == buffer) {
            *(p++) = '0' + val % 10;
    2858:	00a00713          	li	a4,10
    285c:	02e4e7b3          	rem	a5,s1,a4
    2860:	03078793          	addi	a5,a5,48
    2864:	00f40023          	sb	a5,0(s0)
            val = val / 10;
    2868:	02e4c4b3          	div	s1,s1,a4
            *(p++) = '0' + val % 10;
    286c:	00140413          	addi	s0,s0,1
        while (val || p == buffer) {
    2870:	fe0494e3          	bnez	s1,2858 <bsp_printf_d+0x30>
    2874:	00010793          	mv	a5,sp
    2878:	fef400e3          	beq	s0,a5,2858 <bsp_printf_d+0x30>
    287c:	0100006f          	j	288c <bsp_printf_d+0x64>
        }
        while (p != buffer)
            bsp_printf_c(*(--p));
    2880:	fff40413          	addi	s0,s0,-1
    2884:	00044503          	lbu	a0,0(s0)
    2888:	f49ff0ef          	jal	ra,27d0 <bsp_printf_c>
        while (p != buffer)
    288c:	00010793          	mv	a5,sp
    2890:	fef418e3          	bne	s0,a5,2880 <bsp_printf_d+0x58>
    }
    2894:	02c12083          	lw	ra,44(sp)
    2898:	02812403          	lw	s0,40(sp)
    289c:	02412483          	lw	s1,36(sp)
    28a0:	03010113          	addi	sp,sp,48
    28a4:	00008067          	ret

000028a8 <bsp_printf_x>:
    
    static void bsp_printf_x(int val)
    {
    28a8:	ff010113          	addi	sp,sp,-16
    28ac:	00112623          	sw	ra,12(sp)
        int i,digi=2;
    
        for(i=0;i<8;i++)
    28b0:	00000713          	li	a4,0
    28b4:	00700793          	li	a5,7
    28b8:	02e7c063          	blt	a5,a4,28d8 <bsp_printf_x+0x30>
        {
            if((val & (0xFFFFFFF0 <<(4*i))) == 0)
    28bc:	00271693          	slli	a3,a4,0x2
    28c0:	ff000793          	li	a5,-16
    28c4:	00d797b3          	sll	a5,a5,a3
    28c8:	00f577b3          	and	a5,a0,a5
    28cc:	00078663          	beqz	a5,28d8 <bsp_printf_x+0x30>
        for(i=0;i<8;i++)
    28d0:	00170713          	addi	a4,a4,1
    28d4:	fe1ff06f          	j	28b4 <bsp_printf_x+0xc>
            {
                digi=i+1;
                break;
            }
        }
        bsp_printHex_lower(val);
    28d8:	ea1ff0ef          	jal	ra,2778 <bsp_printHex_lower>
    }
    28dc:	00c12083          	lw	ra,12(sp)
    28e0:	01010113          	addi	sp,sp,16
    28e4:	00008067          	ret

000028e8 <bsp_printf_X>:
    
    static void bsp_printf_X(int val)
        {
    28e8:	ff010113          	addi	sp,sp,-16
    28ec:	00112623          	sw	ra,12(sp)
            int i,digi=2;

            for(i=0;i<8;i++)
    28f0:	00000713          	li	a4,0
    28f4:	00700793          	li	a5,7
    28f8:	02e7c063          	blt	a5,a4,2918 <bsp_printf_X+0x30>
            {
                if((val & (0xFFFFFFF0 <<(4*i))) == 0)
    28fc:	00271693          	slli	a3,a4,0x2
    2900:	ff000793          	li	a5,-16
    2904:	00d797b3          	sll	a5,a5,a3
    2908:	00f577b3          	and	a5,a0,a5
    290c:	00078663          	beqz	a5,2918 <bsp_printf_X+0x30>
            for(i=0;i<8;i++)
    2910:	00170713          	addi	a4,a4,1
    2914:	fe1ff06f          	j	28f4 <bsp_printf_X+0xc>
                {
                    digi=i+1;
                    break;
                }
            }
            bsp_printHex(val);
    2918:	e09ff0ef          	jal	ra,2720 <bsp_printHex>
        }
    291c:	00c12083          	lw	ra,12(sp)
    2920:	01010113          	addi	sp,sp,16
    2924:	00008067          	ret

00002928 <dmasg_priority>:
        u32 ca = dmasg_ca(base, channel);
        write_u32(fifo_base << 0 | fifo_bytes-1 << 16,  ca+DMASG_CHANNEL_FIFO);
    }
    
    static void dmasg_priority(u32 base, u32 channel, u32 priority, u32 weight){
        u32 ca = dmasg_ca(base, channel);
    2928:	00759593          	slli	a1,a1,0x7
    292c:	00a585b3          	add	a1,a1,a0
        write_u32(priority | weight << 8,  ca+DMASG_CHANNEL_PRIORITY);
    2930:	00869693          	slli	a3,a3,0x8
    2934:	00c6e6b3          	or	a3,a3,a2
        *((volatile u32*) address) = data;
    2938:	04d5a223          	sw	a3,68(a1)
    }
    293c:	00008067          	ret

00002940 <plic_set_priority>:
#define PLIC_CLAIM_BASE         0x200004
#define PLIC_ENABLE_PER_HART    0x80
#define PLIC_CONTEXT_PER_HART   0x1000

    static void plic_set_priority(u32 plic, u32 gateway, u32 priority){
        write_u32(priority, plic + PLIC_PRIORITY_BASE + gateway*4);
    2940:	00259593          	slli	a1,a1,0x2
    2944:	00a585b3          	add	a1,a1,a0
    2948:	00c5a023          	sw	a2,0(a1)
    }
    294c:	00008067          	ret

00002950 <plic_set_enable>:
    static u32 plic_get_priority(u32 plic, u32 gateway){
        return read_u32(plic + PLIC_PRIORITY_BASE + gateway*4);
    }
    
    static void plic_set_enable(u32 plic, u32 target,u32 gateway, u32 enable){
        u32 word = plic + PLIC_ENABLE_BASE + target * PLIC_ENABLE_PER_HART + (gateway / 32 * 4);
    2950:	00759593          	slli	a1,a1,0x7
    2954:	00a58533          	add	a0,a1,a0
    2958:	00565593          	srli	a1,a2,0x5
    295c:	00259593          	slli	a1,a1,0x2
    2960:	00b50533          	add	a0,a0,a1
    2964:	000025b7          	lui	a1,0x2
    2968:	00b50533          	add	a0,a0,a1
        u32 mask = 1 << (gateway % 32);
    296c:	00100793          	li	a5,1
    2970:	00c797b3          	sll	a5,a5,a2
        if (enable)
    2974:	00068a63          	beqz	a3,2988 <plic_set_enable+0x38>
        return *((volatile u32*) address);
    2978:	00052603          	lw	a2,0(a0) # f8010000 <__freertos_irq_stack_top+0xf7feab10>
            write_u32(read_u32(word) | mask, word);
    297c:	00c7e7b3          	or	a5,a5,a2
        *((volatile u32*) address) = data;
    2980:	00f52023          	sw	a5,0(a0)
    2984:	00008067          	ret
        return *((volatile u32*) address);
    2988:	00052603          	lw	a2,0(a0)
        else
            write_u32(read_u32(word) & ~mask, word);
    298c:	fff7c793          	not	a5,a5
    2990:	00c7f7b3          	and	a5,a5,a2
        *((volatile u32*) address) = data;
    2994:	00f52023          	sw	a5,0(a0)
    }
    2998:	00008067          	ret

0000299c <plic_set_threshold>:
    
    static void plic_set_threshold(u32 plic, u32 target, u32 threshold){
        write_u32(threshold, plic + PLIC_THRESHOLD_BASE + target*PLIC_CONTEXT_PER_HART);
    299c:	00c59593          	slli	a1,a1,0xc
    29a0:	00a585b3          	add	a1,a1,a0
    29a4:	00200537          	lui	a0,0x200
    29a8:	00a585b3          	add	a1,a1,a0
    29ac:	00c5a023          	sw	a2,0(a1) # 2000 <_strtol_l.isra.0+0xd8>
    }
    29b0:	00008067          	ret

000029b4 <plic_claim>:
    static u32 plic_get_threshold(u32 plic, u32 target){
        return read_u32(plic + PLIC_THRESHOLD_BASE + target*PLIC_CONTEXT_PER_HART);
    }
    
    static u32 plic_claim(u32 plic, u32 target){
        return read_u32(plic + PLIC_CLAIM_BASE + target*PLIC_CONTEXT_PER_HART);
    29b4:	00c59593          	slli	a1,a1,0xc
    29b8:	00a585b3          	add	a1,a1,a0
    29bc:	00200537          	lui	a0,0x200
    29c0:	00450513          	addi	a0,a0,4 # 200004 <__freertos_irq_stack_top+0x1dab14>
    29c4:	00a585b3          	add	a1,a1,a0
        return *((volatile u32*) address);
    29c8:	0005a503          	lw	a0,0(a1)
    }
    29cc:	00008067          	ret

000029d0 <plic_release>:
    
    static void plic_release(u32 plic, u32 target, u32 gateway){
        write_u32(gateway,plic + PLIC_CLAIM_BASE + target*PLIC_CONTEXT_PER_HART);
    29d0:	00c59593          	slli	a1,a1,0xc
    29d4:	00a585b3          	add	a1,a1,a0
    29d8:	00200537          	lui	a0,0x200
    29dc:	00450513          	addi	a0,a0,4 # 200004 <__freertos_irq_stack_top+0x1dab14>
    29e0:	00a585b3          	add	a1,a1,a0
        *((volatile u32*) address) = data;
    29e4:	00c5a023          	sw	a2,0(a1)
    }
    29e8:	00008067          	ret

000029ec <clock_sel>:
    bsp_printf("\n*** CRASH ***\n");
    while (1) {}
}

static void clock_sel(int speed) {
    int v = (speed == Speed_1000Mhz) ? 0x03 : 0x00;
    29ec:	00400793          	li	a5,4
    29f0:	00f50a63          	beq	a0,a5,2a04 <clock_sel+0x18>
    29f4:	00000713          	li	a4,0
    29f8:	f81207b7          	lui	a5,0xf8120
    29fc:	00e7a023          	sw	a4,0(a5) # f8120000 <__freertos_irq_stack_top+0xf80fab10>
    write_u32(v, IO_APB_SLAVE_2_APB);
}
    2a00:	00008067          	ret
    int v = (speed == Speed_1000Mhz) ? 0x03 : 0x00;
    2a04:	00300713          	li	a4,3
    2a08:	ff1ff06f          	j	29f8 <clock_sel+0xc>

00002a0c <bsp_printf>:

    static void bsp_printf(const char *format, ...)
    {
    2a0c:	fc010113          	addi	sp,sp,-64
    2a10:	00112e23          	sw	ra,28(sp)
    2a14:	00812c23          	sw	s0,24(sp)
    2a18:	00912a23          	sw	s1,20(sp)
    2a1c:	00050493          	mv	s1,a0
    2a20:	02b12223          	sw	a1,36(sp)
    2a24:	02c12423          	sw	a2,40(sp)
    2a28:	02d12623          	sw	a3,44(sp)
    2a2c:	02e12823          	sw	a4,48(sp)
    2a30:	02f12a23          	sw	a5,52(sp)
    2a34:	03012c23          	sw	a6,56(sp)
    2a38:	03112e23          	sw	a7,60(sp)
        int i;
        va_list ap;
    
        va_start(ap, format);
    2a3c:	02410793          	addi	a5,sp,36
    2a40:	00f12623          	sw	a5,12(sp)
    
        for (i = 0; format[i]; i++)
    2a44:	00000413          	li	s0,0
    2a48:	01c0006f          	j	2a64 <bsp_printf+0x58>
            if (format[i] == '%') {
                while (format[++i]) {
                    if (format[i] == 'c') {
                        bsp_printf_c(va_arg(ap,int));
    2a4c:	00c12783          	lw	a5,12(sp)
    2a50:	00478713          	addi	a4,a5,4
    2a54:	00e12623          	sw	a4,12(sp)
    2a58:	0007a503          	lw	a0,0(a5)
    2a5c:	d75ff0ef          	jal	ra,27d0 <bsp_printf_c>
        for (i = 0; format[i]; i++)
    2a60:	00140413          	addi	s0,s0,1
    2a64:	008487b3          	add	a5,s1,s0
    2a68:	0007c503          	lbu	a0,0(a5)
    2a6c:	0c050263          	beqz	a0,2b30 <bsp_printf+0x124>
            if (format[i] == '%') {
    2a70:	02500793          	li	a5,37
    2a74:	06f50663          	beq	a0,a5,2ae0 <bsp_printf+0xd4>
                        break;
                    }
#endif //#if (ENABLE_FLOATING_POINT_SUPPORT)
                }
            } else
                bsp_printf_c(format[i]);
    2a78:	d59ff0ef          	jal	ra,27d0 <bsp_printf_c>
    2a7c:	fe5ff06f          	j	2a60 <bsp_printf+0x54>
                        bsp_printf_s(va_arg(ap,char*));
    2a80:	00c12783          	lw	a5,12(sp)
    2a84:	00478713          	addi	a4,a5,4
    2a88:	00e12623          	sw	a4,12(sp)
    2a8c:	0007a503          	lw	a0,0(a5)
    2a90:	d61ff0ef          	jal	ra,27f0 <bsp_printf_s>
                        break;
    2a94:	fcdff06f          	j	2a60 <bsp_printf+0x54>
                        bsp_printf_d(va_arg(ap,int));
    2a98:	00c12783          	lw	a5,12(sp)
    2a9c:	00478713          	addi	a4,a5,4
    2aa0:	00e12623          	sw	a4,12(sp)
    2aa4:	0007a503          	lw	a0,0(a5)
    2aa8:	d81ff0ef          	jal	ra,2828 <bsp_printf_d>
                        break;
    2aac:	fb5ff06f          	j	2a60 <bsp_printf+0x54>
                        bsp_printf_X(va_arg(ap,int));
    2ab0:	00c12783          	lw	a5,12(sp)
    2ab4:	00478713          	addi	a4,a5,4
    2ab8:	00e12623          	sw	a4,12(sp)
    2abc:	0007a503          	lw	a0,0(a5)
    2ac0:	e29ff0ef          	jal	ra,28e8 <bsp_printf_X>
                        break;
    2ac4:	f9dff06f          	j	2a60 <bsp_printf+0x54>
                        bsp_printf_x(va_arg(ap,int));
    2ac8:	00c12783          	lw	a5,12(sp)
    2acc:	00478713          	addi	a4,a5,4
    2ad0:	00e12623          	sw	a4,12(sp)
    2ad4:	0007a503          	lw	a0,0(a5)
    2ad8:	dd1ff0ef          	jal	ra,28a8 <bsp_printf_x>
                        break;
    2adc:	f85ff06f          	j	2a60 <bsp_printf+0x54>
                while (format[++i]) {
    2ae0:	00140413          	addi	s0,s0,1
    2ae4:	008487b3          	add	a5,s1,s0
    2ae8:	0007c783          	lbu	a5,0(a5)
    2aec:	f6078ae3          	beqz	a5,2a60 <bsp_printf+0x54>
                    if (format[i] == 'c') {
    2af0:	06300713          	li	a4,99
    2af4:	f4e78ce3          	beq	a5,a4,2a4c <bsp_printf+0x40>
                    else if (format[i] == 's') {
    2af8:	07300713          	li	a4,115
    2afc:	f8e782e3          	beq	a5,a4,2a80 <bsp_printf+0x74>
                    else if (format[i] == 'd') {
    2b00:	06400713          	li	a4,100
    2b04:	f8e78ae3          	beq	a5,a4,2a98 <bsp_printf+0x8c>
                    else if (format[i] == 'X') {
    2b08:	05800713          	li	a4,88
    2b0c:	fae782e3          	beq	a5,a4,2ab0 <bsp_printf+0xa4>
                    else if (format[i] == 'x') {
    2b10:	07800713          	li	a4,120
    2b14:	fae78ae3          	beq	a5,a4,2ac8 <bsp_printf+0xbc>
                    else if (format[i] == 'f') {
    2b18:	06600713          	li	a4,102
    2b1c:	fce792e3          	bne	a5,a4,2ae0 <bsp_printf+0xd4>
                        bsp_printf_s("<Floating point printing not enable. Please Enable it at bsp.h first...>");
    2b20:	0001d537          	lui	a0,0x1d
    2b24:	ad050513          	addi	a0,a0,-1328 # 1cad0 <packet_anomaly_detector_means+0x40>
    2b28:	cc9ff0ef          	jal	ra,27f0 <bsp_printf_s>
                        break;
    2b2c:	f35ff06f          	j	2a60 <bsp_printf+0x54>
    
        va_end(ap);
    }
    2b30:	01c12083          	lw	ra,28(sp)
    2b34:	01812403          	lw	s0,24(sp)
    2b38:	01412483          	lw	s1,20(sp)
    2b3c:	04010113          	addi	sp,sp,64
    2b40:	00008067          	ret

00002b44 <LwIP_Init>:
static void LwIP_Init(void) {
    2b44:	fe010113          	addi	sp,sp,-32
    2b48:	00112e23          	sw	ra,28(sp)
    2b4c:	00812c23          	sw	s0,24(sp)
    2b50:	00912a23          	sw	s1,20(sp)
    2b54:	01212823          	sw	s2,16(sp)
    2b58:	01312623          	sw	s3,12(sp)
    2b5c:	01412423          	sw	s4,8(sp)
    IP4_ADDR(&ipaddr, IP_ADDR0, IP_ADDR1, IP_ADDR2, IP_ADDR3);
    2b60:	371fb7b7          	lui	a5,0x371fb
    2b64:	8c078793          	addi	a5,a5,-1856 # 371fa8c0 <__freertos_irq_stack_top+0x371d53d0>
    2b68:	8ef1a423          	sw	a5,-1816(gp) # 20090 <ipaddr>
    IP4_ADDR(&netmask, NETMASK_ADDR0, NETMASK_ADDR1, NETMASK_ADDR2, NETMASK_ADDR3);
    2b6c:	010007b7          	lui	a5,0x1000
    2b70:	fff78793          	addi	a5,a5,-1 # ffffff <__freertos_irq_stack_top+0xfdab0f>
    2b74:	8ef1a223          	sw	a5,-1820(gp) # 2008c <netmask>
    IP4_ADDR(&gw, GW_ADDR0, GW_ADDR1, GW_ADDR2, GW_ADDR3);
    2b78:	011fb7b7          	lui	a5,0x11fb
    2b7c:	8c078793          	addi	a5,a5,-1856 # 11fa8c0 <__freertos_irq_stack_top+0x11d53d0>
    2b80:	8ef1a023          	sw	a5,-1824(gp) # 20088 <gw>
    lwip_init();
    2b84:	241110ef          	jal	ra,145c4 <lwip_init>
    netif_add(&gnetif, &ipaddr, &netmask, &gw, NULL, ethernetif_init, sniff_input);
    2b88:	96818a13          	addi	s4,gp,-1688 # 20110 <gnetif>
    2b8c:	00003837          	lui	a6,0x3
    2b90:	f1c80813          	addi	a6,a6,-228 # 2f1c <sniff_input>
    2b94:	000067b7          	lui	a5,0x6
    2b98:	00c78793          	addi	a5,a5,12 # 600c <ethernetif_init>
    2b9c:	00000713          	li	a4,0
    2ba0:	8e018693          	addi	a3,gp,-1824 # 20088 <gw>
    2ba4:	8e418613          	addi	a2,gp,-1820 # 2008c <netmask>
    2ba8:	8e818593          	addi	a1,gp,-1816 # 20090 <ipaddr>
    2bac:	96818513          	addi	a0,gp,-1688 # 20110 <gnetif>
    2bb0:	448090ef          	jal	ra,bff8 <netif_add>
    netif_set_default(&gnetif);
    2bb4:	96818513          	addi	a0,gp,-1688 # 20110 <gnetif>
    2bb8:	415080ef          	jal	ra,b7cc <netif_set_default>
    if (netif_is_link_up(&gnetif)) netif_set_up(&gnetif);
    2bbc:	035a4783          	lbu	a5,53(s4)
    2bc0:	0027d793          	srli	a5,a5,0x2
    2bc4:	0017f793          	andi	a5,a5,1
    2bc8:	06078663          	beqz	a5,2c34 <LwIP_Init+0xf0>
    2bcc:	96818513          	addi	a0,gp,-1688 # 20110 <gnetif>
    2bd0:	600090ef          	jal	ra,c1d0 <netif_set_up>
    icmp_pcb = raw_new(IP_PROTO_ICMP);
    2bd4:	00100513          	li	a0,1
    2bd8:	5e80e0ef          	jal	ra,111c0 <raw_new>
    2bdc:	8ca1ae23          	sw	a0,-1828(gp) # 20084 <icmp_pcb>
    raw_recv(icmp_pcb, icmp_recv_cb, NULL);
    2be0:	00000613          	li	a2,0
    2be4:	000035b7          	lui	a1,0x3
    2be8:	c9058593          	addi	a1,a1,-880 # 2c90 <icmp_recv_cb>
    2bec:	2bc0e0ef          	jal	ra,10ea8 <raw_recv>
    raw_bind(icmp_pcb, IP_ADDR_ANY);
    2bf0:	8ac18593          	addi	a1,gp,-1876 # 20054 <ip_addr_any>
    2bf4:	8dc1a503          	lw	a0,-1828(gp) # 20084 <icmp_pcb>
    2bf8:	2200e0ef          	jal	ra,10e18 <raw_bind>
    sys_timeout(5000, reset_flow_stats, NULL);
    2bfc:	00000613          	li	a2,0
    2c00:	000035b7          	lui	a1,0x3
    2c04:	c4058593          	addi	a1,a1,-960 # 2c40 <reset_flow_stats>
    2c08:	00001537          	lui	a0,0x1
    2c0c:	38850513          	addi	a0,a0,904 # 1388 <_malloc_r+0x254>
    2c10:	3210e0ef          	jal	ra,11730 <sys_timeout>
}
    2c14:	01c12083          	lw	ra,28(sp)
    2c18:	01812403          	lw	s0,24(sp)
    2c1c:	01412483          	lw	s1,20(sp)
    2c20:	01012903          	lw	s2,16(sp)
    2c24:	00c12983          	lw	s3,12(sp)
    2c28:	00812a03          	lw	s4,8(sp)
    2c2c:	02010113          	addi	sp,sp,32
    2c30:	00008067          	ret
    else                           netif_set_down(&gnetif);
    2c34:	96818513          	addi	a0,gp,-1688 # 20110 <gnetif>
    2c38:	604090ef          	jal	ra,c23c <netif_set_down>
    2c3c:	f99ff06f          	j	2bd4 <LwIP_Init+0x90>

00002c40 <reset_flow_stats>:
static void reset_flow_stats(void *arg) {
    2c40:	ff010113          	addi	sp,sp,-16
    2c44:	00112623          	sw	ra,12(sp)
    2c48:	00812423          	sw	s0,8(sp)
    struct flow_stats *f = flow_head;
    2c4c:	8d81a503          	lw	a0,-1832(gp) # 20080 <flow_head>
    while (f) {
    2c50:	00050a63          	beqz	a0,2c64 <reset_flow_stats+0x24>
        struct flow_stats *n = f->next;
    2c54:	01852403          	lw	s0,24(a0)
        free(f);
    2c58:	cccfe0ef          	jal	ra,1124 <free>
        f = n;
    2c5c:	00040513          	mv	a0,s0
    2c60:	ff1ff06f          	j	2c50 <reset_flow_stats+0x10>
    flow_head = NULL;
    2c64:	8c01ac23          	sw	zero,-1832(gp) # 20080 <flow_head>
    sys_timeout(5000, reset_flow_stats, NULL);
    2c68:	00000613          	li	a2,0
    2c6c:	000035b7          	lui	a1,0x3
    2c70:	c4058593          	addi	a1,a1,-960 # 2c40 <reset_flow_stats>
    2c74:	00001537          	lui	a0,0x1
    2c78:	38850513          	addi	a0,a0,904 # 1388 <_malloc_r+0x254>
    2c7c:	2b50e0ef          	jal	ra,11730 <sys_timeout>
}
    2c80:	00c12083          	lw	ra,12(sp)
    2c84:	00812403          	lw	s0,8(sp)
    2c88:	01010113          	addi	sp,sp,16
    2c8c:	00008067          	ret

00002c90 <icmp_recv_cb>:
{
    2c90:	ff010113          	addi	sp,sp,-16
    2c94:	00112623          	sw	ra,12(sp)
    2c98:	00812423          	sw	s0,8(sp)
    2c9c:	00912223          	sw	s1,4(sp)
    2ca0:	01212023          	sw	s2,0(sp)
    2ca4:	00060493          	mv	s1,a2
    2ca8:	00068913          	mv	s2,a3
    struct ip_hdr *iph = (struct ip_hdr *)p->payload;
    2cac:	00462783          	lw	a5,4(a2)
        ((u8_t*)p->payload + (IPH_HL(iph)*4));
    2cb0:	0007c403          	lbu	s0,0(a5)
    2cb4:	00f47413          	andi	s0,s0,15
    2cb8:	00241413          	slli	s0,s0,0x2
    struct icmp_echo_hdr *ie = (struct icmp_echo_hdr *)
    2cbc:	00878433          	add	s0,a5,s0
    if (ie->type == ICMP_ECHO) {
    2cc0:	00044683          	lbu	a3,0(s0)
    2cc4:	00800713          	li	a4,8
    2cc8:	02e68463          	beq	a3,a4,2cf0 <icmp_recv_cb+0x60>
    pbuf_free(p);
    2ccc:	00048513          	mv	a0,s1
    2cd0:	72d090ef          	jal	ra,cbfc <pbuf_free>
}
    2cd4:	00100513          	li	a0,1
    2cd8:	00c12083          	lw	ra,12(sp)
    2cdc:	00812403          	lw	s0,8(sp)
    2ce0:	00412483          	lw	s1,4(sp)
    2ce4:	00012903          	lw	s2,0(sp)
    2ce8:	01010113          	addi	sp,sp,16
    2cec:	00008067          	ret
        ie->type   = ICMP_ER;
    2cf0:	00040023          	sb	zero,0(s0)
        ie->chksum = 0;
    2cf4:	00040123          	sb	zero,2(s0)
    2cf8:	000401a3          	sb	zero,3(s0)
        ie->chksum = inet_chksum(ie, p->tot_len - (IPH_HL(iph)*4));
    2cfc:	00865703          	lhu	a4,8(a2)
    2d00:	0007c583          	lbu	a1,0(a5)
    2d04:	00f5f593          	andi	a1,a1,15
    2d08:	0ff5f593          	andi	a1,a1,255
    2d0c:	00259593          	slli	a1,a1,0x2
    2d10:	40b705b3          	sub	a1,a4,a1
    2d14:	01059593          	slli	a1,a1,0x10
    2d18:	0105d593          	srli	a1,a1,0x10
    2d1c:	00040513          	mv	a0,s0
    2d20:	054120ef          	jal	ra,14d74 <inet_chksum>
    2d24:	00a40123          	sb	a0,2(s0)
    2d28:	00855513          	srli	a0,a0,0x8
    2d2c:	00a401a3          	sb	a0,3(s0)
        raw_sendto(icmp_pcb, p, addr);
    2d30:	00090613          	mv	a2,s2
    2d34:	00048593          	mv	a1,s1
    2d38:	8dc1a503          	lw	a0,-1828(gp) # 20084 <icmp_pcb>
    2d3c:	3480e0ef          	jal	ra,11084 <raw_sendto>
    2d40:	f8dff06f          	j	2ccc <icmp_recv_cb+0x3c>

00002d44 <eml_mahalanobis_distance_squared>:
* \param n_features Length of the input values arrays
*/
float
eml_mahalanobis_distance_squared(const float *x1, const float *x2,
                const float *precision, int n_features)
{
    2d44:	fd010113          	addi	sp,sp,-48
    2d48:	02112623          	sw	ra,44(sp)
    2d4c:	02812423          	sw	s0,40(sp)
    2d50:	02912223          	sw	s1,36(sp)
    2d54:	03212023          	sw	s2,32(sp)
    2d58:	01312e23          	sw	s3,28(sp)
    2d5c:	01412c23          	sw	s4,24(sp)
    2d60:	01512a23          	sw	s5,20(sp)
    2d64:	01612823          	sw	s6,16(sp)
    2d68:	01712623          	sw	s7,12(sp)
    2d6c:	01812423          	sw	s8,8(sp)
    2d70:	00050a93          	mv	s5,a0
    2d74:	00058a13          	mv	s4,a1
    2d78:	00060b13          	mv	s6,a2
    2d7c:	00068493          	mv	s1,a3
    float distance = 0.0;

    for (int i=0; i<n_features; i++) {
    2d80:	00000993          	li	s3,0
    float distance = 0.0;
    2d84:	00000b93          	li	s7,0
    for (int i=0; i<n_features; i++) {
    2d88:	0380006f          	j	2dc0 <eml_mahalanobis_distance_squared+0x7c>
        float accumulate = 0.0f;
        for (int j=0; j<n_features; j++) {
            accumulate += (precision[j*n_features+i] * (x1[j] - x2[j]));
        }
        distance += (accumulate * (x1[i] - x2[i]));
    2d8c:	00299793          	slli	a5,s3,0x2
    2d90:	00fa8733          	add	a4,s5,a5
    2d94:	00fa07b3          	add	a5,s4,a5
    2d98:	0007a583          	lw	a1,0(a5)
    2d9c:	00072503          	lw	a0,0(a4)
    2da0:	5b4190ef          	jal	ra,1c354 <__subsf3>
    2da4:	00090593          	mv	a1,s2
    2da8:	228190ef          	jal	ra,1bfd0 <__mulsf3>
    2dac:	00050593          	mv	a1,a0
    2db0:	000b8513          	mv	a0,s7
    2db4:	431180ef          	jal	ra,1b9e4 <__addsf3>
    2db8:	00050b93          	mv	s7,a0
    for (int i=0; i<n_features; i++) {
    2dbc:	00198993          	addi	s3,s3,1
    2dc0:	0699d063          	bge	s3,s1,2e20 <eml_mahalanobis_distance_squared+0xdc>
        for (int j=0; j<n_features; j++) {
    2dc4:	00000413          	li	s0,0
        float accumulate = 0.0f;
    2dc8:	00000913          	li	s2,0
        for (int j=0; j<n_features; j++) {
    2dcc:	fc9450e3          	bge	s0,s1,2d8c <eml_mahalanobis_distance_squared+0x48>
            accumulate += (precision[j*n_features+i] * (x1[j] - x2[j]));
    2dd0:	029407b3          	mul	a5,s0,s1
    2dd4:	013787b3          	add	a5,a5,s3
    2dd8:	00279793          	slli	a5,a5,0x2
    2ddc:	00fb07b3          	add	a5,s6,a5
    2de0:	0007ac03          	lw	s8,0(a5)
    2de4:	00241793          	slli	a5,s0,0x2
    2de8:	00fa8733          	add	a4,s5,a5
    2dec:	00fa07b3          	add	a5,s4,a5
    2df0:	0007a583          	lw	a1,0(a5)
    2df4:	00072503          	lw	a0,0(a4)
    2df8:	55c190ef          	jal	ra,1c354 <__subsf3>
    2dfc:	00050593          	mv	a1,a0
    2e00:	000c0513          	mv	a0,s8
    2e04:	1cc190ef          	jal	ra,1bfd0 <__mulsf3>
    2e08:	00050593          	mv	a1,a0
    2e0c:	00090513          	mv	a0,s2
    2e10:	3d5180ef          	jal	ra,1b9e4 <__addsf3>
    2e14:	00050913          	mv	s2,a0
        for (int j=0; j<n_features; j++) {
    2e18:	00140413          	addi	s0,s0,1
    2e1c:	fb1ff06f          	j	2dcc <eml_mahalanobis_distance_squared+0x88>
    }

    return distance;
}
    2e20:	000b8513          	mv	a0,s7
    2e24:	02c12083          	lw	ra,44(sp)
    2e28:	02812403          	lw	s0,40(sp)
    2e2c:	02412483          	lw	s1,36(sp)
    2e30:	02012903          	lw	s2,32(sp)
    2e34:	01c12983          	lw	s3,28(sp)
    2e38:	01812a03          	lw	s4,24(sp)
    2e3c:	01412a83          	lw	s5,20(sp)
    2e40:	01012b03          	lw	s6,16(sp)
    2e44:	00c12b83          	lw	s7,12(sp)
    2e48:	00812c03          	lw	s8,8(sp)
    2e4c:	03010113          	addi	sp,sp,48
    2e50:	00008067          	ret

00002e54 <eml_elliptic_envelope_predict>:
int
eml_elliptic_envelope_predict(const EmlEllipticEnvelope *self,
                            const float *features, int n_features,
                            float *out_dist)
{
    EML_PRECONDITION(n_features == self->n_features, EmlSizeMismatch);
    2e54:	00052783          	lw	a5,0(a0)
    2e58:	08c79263          	bne	a5,a2,2edc <eml_elliptic_envelope_predict+0x88>
{
    2e5c:	ff010113          	addi	sp,sp,-16
    2e60:	00112623          	sw	ra,12(sp)
    2e64:	00812423          	sw	s0,8(sp)
    2e68:	00912223          	sw	s1,4(sp)
    2e6c:	01212023          	sw	s2,0(sp)
    2e70:	00068493          	mv	s1,a3
    2e74:	00060693          	mv	a3,a2
    2e78:	00058793          	mv	a5,a1
    2e7c:	00050413          	mv	s0,a0

    const float dist = \
        eml_mahalanobis_distance_squared(features, self->means, self->precision, n_features);
    2e80:	00c52603          	lw	a2,12(a0)
    2e84:	00852583          	lw	a1,8(a0)
    2e88:	00078513          	mv	a0,a5
    2e8c:	eb9ff0ef          	jal	ra,2d44 <eml_mahalanobis_distance_squared>
    2e90:	00050913          	mv	s2,a0
    const float dist_from_boundary = (-dist) - self->decision_boundary;
    2e94:	00442583          	lw	a1,4(s0)
    2e98:	80000537          	lui	a0,0x80000
    2e9c:	01254533          	xor	a0,a0,s2
    2ea0:	4b4190ef          	jal	ra,1c354 <__subsf3>

    const int outlier = (dist_from_boundary < 0 ) ? 1 : 0;
    2ea4:	00100413          	li	s0,1
    2ea8:	00000593          	li	a1,0
    2eac:	060190ef          	jal	ra,1bf0c <__lesf2>
    2eb0:	00054463          	bltz	a0,2eb8 <eml_elliptic_envelope_predict+0x64>
    2eb4:	00000413          	li	s0,0
    2eb8:	0ff47513          	andi	a0,s0,255

    if (out_dist) {
    2ebc:	00048463          	beqz	s1,2ec4 <eml_elliptic_envelope_predict+0x70>
        //*out_dist = dist_from_boundary;
        *out_dist = dist;
    2ec0:	0124a023          	sw	s2,0(s1)
    }

    return outlier;
}
    2ec4:	00c12083          	lw	ra,12(sp)
    2ec8:	00812403          	lw	s0,8(sp)
    2ecc:	00412483          	lw	s1,4(sp)
    2ed0:	00012903          	lw	s2,0(sp)
    2ed4:	01010113          	addi	sp,sp,16
    2ed8:	00008067          	ret
    EML_PRECONDITION(n_features == self->n_features, EmlSizeMismatch);
    2edc:	00100513          	li	a0,1
}
    2ee0:	00008067          	ret

00002ee4 <packet_anomaly_detector_predict>:
        packet_anomaly_detector_means,
        packet_anomaly_detector_precisions
    };

    // Prediction function
    float packet_anomaly_detector_predict(const float *features, int n_features) {
    2ee4:	fe010113          	addi	sp,sp,-32
    2ee8:	00112e23          	sw	ra,28(sp)
        float dist = 0.0;
    2eec:	00000793          	li	a5,0
    2ef0:	00f12623          	sw	a5,12(sp)
        const int class = eml_elliptic_envelope_predict(&packet_anomaly_detector_classifier,
    2ef4:	00c10693          	addi	a3,sp,12
    2ef8:	00058613          	mv	a2,a1
    2efc:	00050593          	mv	a1,a0
    2f00:	0001d537          	lui	a0,0x1d
    2f04:	9f050513          	addi	a0,a0,-1552 # 1c9f0 <_data>
    2f08:	f4dff0ef          	jal	ra,2e54 <eml_elliptic_envelope_predict>
                                features, n_features, &dist);
        return dist; 
    }
    2f0c:	00c12503          	lw	a0,12(sp)
    2f10:	01c12083          	lw	ra,28(sp)
    2f14:	02010113          	addi	sp,sp,32
    2f18:	00008067          	ret

00002f1c <sniff_input>:
static err_t sniff_input(struct pbuf *p, struct netif *netif) {
    2f1c:	fa010113          	addi	sp,sp,-96
    2f20:	04112e23          	sw	ra,92(sp)
    2f24:	04812c23          	sw	s0,88(sp)
    2f28:	04912a23          	sw	s1,84(sp)
    2f2c:	05212823          	sw	s2,80(sp)
    2f30:	05312623          	sw	s3,76(sp)
    2f34:	05412423          	sw	s4,72(sp)
    2f38:	05512223          	sw	s5,68(sp)
    2f3c:	05612023          	sw	s6,64(sp)
    2f40:	03712e23          	sw	s7,60(sp)
    2f44:	00050493          	mv	s1,a0
    2f48:	00058a13          	mv	s4,a1
    const struct eth_hdr *eth = (const struct eth_hdr *)p->payload;
    2f4c:	00452783          	lw	a5,4(a0)
    u16_t etype = lwip_ntohs(eth->type);
    2f50:	00c7c503          	lbu	a0,12(a5)
    2f54:	00d7c783          	lbu	a5,13(a5)
    2f58:	00879793          	slli	a5,a5,0x8
    2f5c:	00a7e533          	or	a0,a5,a0
    2f60:	5c4070ef          	jal	ra,a524 <lwip_htons>
    if (etype == ETHTYPE_ARP ||
    2f64:	80050513          	addi	a0,a0,-2048
    2f68:	0a051263          	bnez	a0,300c <sniff_input+0xf0>
        p->tot_len < SIZEOF_ETH_HDR + sizeof(struct ip_hdr)) {
    2f6c:	0084d703          	lhu	a4,8(s1)
        etype != ETHTYPE_IP ||
    2f70:	02100793          	li	a5,33
    2f74:	08e7fc63          	bgeu	a5,a4,300c <sniff_input+0xf0>
    const struct ip_hdr *iph = (const struct ip_hdr *)((u8_t*)p->payload + SIZEOF_ETH_HDR);
    2f78:	0044a783          	lw	a5,4(s1)
    2f7c:	00e78b13          	addi	s6,a5,14
    u8_t proto = IPH_PROTO(iph);
    2f80:	0177ca83          	lbu	s5,23(a5)
    u16_t ihl   = IPH_HL_BYTES(iph);
    2f84:	00e7c903          	lbu	s2,14(a5)
    2f88:	00f97913          	andi	s2,s2,15
    2f8c:	00291913          	slli	s2,s2,0x2
    if (proto == PROTO_ICMP) {
    2f90:	00100713          	li	a4,1
    2f94:	0aea8e63          	beq	s5,a4,3050 <sniff_input+0x134>
    if (proto == PROTO_UDP) {
    2f98:	01100713          	li	a4,17
    2f9c:	0cea8663          	beq	s5,a4,3068 <sniff_input+0x14c>
    if (proto == PROTO_TCP) {
    2fa0:	00600793          	li	a5,6
    2fa4:	10fa8a63          	beq	s5,a5,30b8 <sniff_input+0x19c>
        const struct udp_hdr *udph = (const struct udp_hdr *)((u8_t*)iph + ihl);
    2fa8:	012b0433          	add	s0,s6,s2
        sport = lwip_ntohs(udph->src);
    2fac:	00044503          	lbu	a0,0(s0)
    2fb0:	00144783          	lbu	a5,1(s0)
    2fb4:	00879793          	slli	a5,a5,0x8
    2fb8:	00a7e533          	or	a0,a5,a0
    2fbc:	568070ef          	jal	ra,a524 <lwip_htons>
    2fc0:	00050993          	mv	s3,a0
        dport = lwip_ntohs(udph->dest);
    2fc4:	00244503          	lbu	a0,2(s0)
    2fc8:	00344783          	lbu	a5,3(s0)
    2fcc:	00879793          	slli	a5,a5,0x8
    2fd0:	00a7e533          	or	a0,a5,a0
    2fd4:	550070ef          	jal	ra,a524 <lwip_htons>
    2fd8:	00050b93          	mv	s7,a0
    if (sport == IPERF_PORT || dport == IPERF_PORT) {
    2fdc:	000017b7          	lui	a5,0x1
    2fe0:	38978793          	addi	a5,a5,905 # 1389 <_malloc_r+0x255>
    2fe4:	1ef98863          	beq	s3,a5,31d4 <sniff_input+0x2b8>
    2fe8:	000017b7          	lui	a5,0x1
    2fec:	38978793          	addi	a5,a5,905 # 1389 <_malloc_r+0x255>
    2ff0:	1efb8663          	beq	s7,a5,31dc <sniff_input+0x2c0>
    err_t ret = ethernet_input(p, netif);
    2ff4:	000a0593          	mv	a1,s4
    2ff8:	00048513          	mv	a0,s1
    2ffc:	28d030ef          	jal	ra,6a88 <ethernet_input>
    3000:	00050413          	mv	s0,a0
    sys_check_timeouts();
    3004:	0f10e0ef          	jal	ra,118f4 <sys_check_timeouts>
    return ret;
    3008:	0180006f          	j	3020 <sniff_input+0x104>
        err_t r = ethernet_input(p, netif);
    300c:	000a0593          	mv	a1,s4
    3010:	00048513          	mv	a0,s1
    3014:	275030ef          	jal	ra,6a88 <ethernet_input>
    3018:	00050413          	mv	s0,a0
        sys_check_timeouts();
    301c:	0d90e0ef          	jal	ra,118f4 <sys_check_timeouts>
}
    3020:	00040513          	mv	a0,s0
    3024:	05c12083          	lw	ra,92(sp)
    3028:	05812403          	lw	s0,88(sp)
    302c:	05412483          	lw	s1,84(sp)
    3030:	05012903          	lw	s2,80(sp)
    3034:	04c12983          	lw	s3,76(sp)
    3038:	04812a03          	lw	s4,72(sp)
    303c:	04412a83          	lw	s5,68(sp)
    3040:	04012b03          	lw	s6,64(sp)
    3044:	03c12b83          	lw	s7,60(sp)
    3048:	06010113          	addi	sp,sp,96
    304c:	00008067          	ret
        err_t r = ethernet_input(p, netif);
    3050:	000a0593          	mv	a1,s4
    3054:	00048513          	mv	a0,s1
    3058:	231030ef          	jal	ra,6a88 <ethernet_input>
    305c:	00050413          	mv	s0,a0
        sys_check_timeouts();
    3060:	0950e0ef          	jal	ra,118f4 <sys_check_timeouts>
        return r;
    3064:	fbdff06f          	j	3020 <sniff_input+0x104>
        const struct udp_hdr *udph = (const struct udp_hdr *)((u8_t*)iph + ihl);
    3068:	012b0633          	add	a2,s6,s2
        if (ip4_addr3(&iph->dest) == 224 &&
    306c:	0207c683          	lbu	a3,32(a5)
    3070:	0e000713          	li	a4,224
    3074:	f2e696e3          	bne	a3,a4,2fa0 <sniff_input+0x84>
            ip4_addr4(&iph->dest) == 251 &&
    3078:	0217c703          	lbu	a4,33(a5)
        if (ip4_addr3(&iph->dest) == 224 &&
    307c:	0fb00793          	li	a5,251
    3080:	f2f710e3          	bne	a4,a5,2fa0 <sniff_input+0x84>
            lwip_ntohs(udph->dest) == 5353) {
    3084:	00264503          	lbu	a0,2(a2)
    3088:	00364783          	lbu	a5,3(a2)
    308c:	00879793          	slli	a5,a5,0x8
    3090:	00a7e533          	or	a0,a5,a0
    3094:	490070ef          	jal	ra,a524 <lwip_htons>
            ip4_addr4(&iph->dest) == 251 &&
    3098:	000017b7          	lui	a5,0x1
    309c:	4e978793          	addi	a5,a5,1257 # 14e9 <_malloc_r+0x3b5>
    30a0:	f0f510e3          	bne	a0,a5,2fa0 <sniff_input+0x84>
            pbuf_free(p);
    30a4:	00048513          	mv	a0,s1
    30a8:	355090ef          	jal	ra,cbfc <pbuf_free>
            sys_check_timeouts();
    30ac:	0490e0ef          	jal	ra,118f4 <sys_check_timeouts>
            return ERR_OK;
    30b0:	00000413          	li	s0,0
    30b4:	f6dff06f          	j	3020 <sniff_input+0x104>
        const struct tcp_hdr *tcph = (const struct tcp_hdr *)((u8_t*)iph + ihl);
    30b8:	012b0433          	add	s0,s6,s2
        sport = lwip_ntohs(tcph->src);
    30bc:	00044503          	lbu	a0,0(s0)
    30c0:	00144783          	lbu	a5,1(s0)
    30c4:	00879793          	slli	a5,a5,0x8
    30c8:	00a7e533          	or	a0,a5,a0
    30cc:	458070ef          	jal	ra,a524 <lwip_htons>
    30d0:	00050993          	mv	s3,a0
        dport = lwip_ntohs(tcph->dest);
    30d4:	00244503          	lbu	a0,2(s0)
    30d8:	00344783          	lbu	a5,3(s0)
    30dc:	00879793          	slli	a5,a5,0x8
    30e0:	00a7e533          	or	a0,a5,a0
    30e4:	440070ef          	jal	ra,a524 <lwip_htons>
    30e8:	00050b93          	mv	s7,a0
    30ec:	ef1ff06f          	j	2fdc <sniff_input+0xc0>
        while (*pp && (*pp)->sport != sport) pp = &(*pp)->next;
    30f0:	01878413          	addi	s0,a5,24
    30f4:	00042783          	lw	a5,0(s0)
    30f8:	00078663          	beqz	a5,3104 <sniff_input+0x1e8>
    30fc:	0007d703          	lhu	a4,0(a5)
    3100:	ff3718e3          	bne	a4,s3,30f0 <sniff_input+0x1d4>
        if (!*pp) {
    3104:	0e078063          	beqz	a5,31e4 <sniff_input+0x2c8>
        struct flow_stats *f = *pp;
    3108:	00042983          	lw	s3,0(s0)
        if (f) {
    310c:	ee0984e3          	beqz	s3,2ff4 <sniff_input+0xd8>
            if (proto == PROTO_TCP) {
    3110:	00600793          	li	a5,6
    3114:	10fa8c63          	beq	s5,a5,322c <sniff_input+0x310>
                f->tot_pkts++;
    3118:	0049a903          	lw	s2,4(s3)
    311c:	00190913          	addi	s2,s2,1
    3120:	0129a223          	sw	s2,4(s3)
                f->tot_bytes  += p->tot_len;
    3124:	0084d403          	lhu	s0,8(s1)
    3128:	0089a783          	lw	a5,8(s3)
    312c:	00f40433          	add	s0,s0,a5
    3130:	0089a423          	sw	s0,8(s3)
                if (dport == IPERF_PORT) {
    3134:	000017b7          	lui	a5,0x1
    3138:	38978793          	addi	a5,a5,905 # 1389 <_malloc_r+0x255>
    313c:	24fb8e63          	beq	s7,a5,3398 <sniff_input+0x47c>
                    f->dst_pkts++;
    3140:	0109a783          	lw	a5,16(s3)
    3144:	00178793          	addi	a5,a5,1
    3148:	00f9a823          	sw	a5,16(s3)
                    (float)f->sport,
    314c:	0009d503          	lhu	a0,0(s3)
    3150:	688190ef          	jal	ra,1c7d8 <__floatunsisf>
                float score = packet_anomaly_detector_predict((float[]){
    3154:	00a12c23          	sw	a0,24(sp)
                    (float)f->tot_pkts,
    3158:	00090513          	mv	a0,s2
    315c:	67c190ef          	jal	ra,1c7d8 <__floatunsisf>
                float score = packet_anomaly_detector_predict((float[]){
    3160:	00a12e23          	sw	a0,28(sp)
                    (float)f->tot_bytes,
    3164:	00040513          	mv	a0,s0
    3168:	670190ef          	jal	ra,1c7d8 <__floatunsisf>
                float score = packet_anomaly_detector_predict((float[]){
    316c:	02a12023          	sw	a0,32(sp)
                    (float)f->src_pkts,
    3170:	00c9a503          	lw	a0,12(s3)
    3174:	664190ef          	jal	ra,1c7d8 <__floatunsisf>
                float score = packet_anomaly_detector_predict((float[]){
    3178:	02a12223          	sw	a0,36(sp)
                    (float)f->dst_pkts,
    317c:	0109a503          	lw	a0,16(s3)
    3180:	658190ef          	jal	ra,1c7d8 <__floatunsisf>
                float score = packet_anomaly_detector_predict((float[]){
    3184:	02a12423          	sw	a0,40(sp)
                    (float)f->src_bytes
    3188:	0149a503          	lw	a0,20(s3)
    318c:	64c190ef          	jal	ra,1c7d8 <__floatunsisf>
                float score = packet_anomaly_detector_predict((float[]){
    3190:	02a12623          	sw	a0,44(sp)
    3194:	00600593          	li	a1,6
    3198:	01810513          	addi	a0,sp,24
    319c:	d49ff0ef          	jal	ra,2ee4 <packet_anomaly_detector_predict>
                if (score > 50.0f) {
    31a0:	8281a583          	lw	a1,-2008(gp) # 1ffd0 <_impure_ptr+0x4>
    31a4:	4a5180ef          	jal	ra,1be48 <__gesf2>
    31a8:	e4a056e3          	blez	a0,2ff4 <sniff_input+0xd8>
                    bsp_printf(
    31ac:	0149a803          	lw	a6,20(s3)
    31b0:	0109a783          	lw	a5,16(s3)
    31b4:	00c9a703          	lw	a4,12(s3)
    31b8:	0089a683          	lw	a3,8(s3)
    31bc:	0049a603          	lw	a2,4(s3)
    31c0:	0009d583          	lhu	a1,0(s3)
    31c4:	0001d537          	lui	a0,0x1d
    31c8:	b8050513          	addi	a0,a0,-1152 # 1cb80 <packet_anomaly_detector_means+0xf0>
    31cc:	841ff0ef          	jal	ra,2a0c <bsp_printf>
    31d0:	e25ff06f          	j	2ff4 <sniff_input+0xd8>
    31d4:	8d818413          	addi	s0,gp,-1832 # 20080 <flow_head>
    31d8:	f1dff06f          	j	30f4 <sniff_input+0x1d8>
    31dc:	8d818413          	addi	s0,gp,-1832 # 20080 <flow_head>
    31e0:	f15ff06f          	j	30f4 <sniff_input+0x1d8>
            *pp = malloc(sizeof(**pp));
    31e4:	01c00513          	li	a0,28
    31e8:	f2dfd0ef          	jal	ra,1114 <malloc>
    31ec:	00a42023          	sw	a0,0(s0)
            if (*pp) {
    31f0:	f0050ce3          	beqz	a0,3108 <sniff_input+0x1ec>
                (*pp)->sport     = sport;
    31f4:	01351023          	sh	s3,0(a0)
                (*pp)->tot_pkts  = 0;
    31f8:	00042783          	lw	a5,0(s0)
    31fc:	0007a223          	sw	zero,4(a5)
                (*pp)->tot_bytes = 0;
    3200:	00042783          	lw	a5,0(s0)
    3204:	0007a423          	sw	zero,8(a5)
                (*pp)->src_pkts  = 0;
    3208:	00042783          	lw	a5,0(s0)
    320c:	0007a623          	sw	zero,12(a5)
                (*pp)->dst_pkts  = 0;
    3210:	00042783          	lw	a5,0(s0)
    3214:	0007a823          	sw	zero,16(a5)
                (*pp)->src_bytes = 0;
    3218:	00042783          	lw	a5,0(s0)
    321c:	0007aa23          	sw	zero,20(a5)
                (*pp)->next      = NULL;
    3220:	00042783          	lw	a5,0(s0)
    3224:	0007ac23          	sw	zero,24(a5)
    3228:	ee1ff06f          	j	3108 <sniff_input+0x1ec>
                const struct tcp_hdr *tcph = (const struct tcp_hdr *)((u8_t*)iph + ihl);
    322c:	012b0933          	add	s2,s6,s2
                u8_t flags = TCPH_FLAGS(tcph);
    3230:	00c94503          	lbu	a0,12(s2)
    3234:	00d94783          	lbu	a5,13(s2)
    3238:	00879793          	slli	a5,a5,0x8
    323c:	00a7e533          	or	a0,a5,a0
    3240:	2e4070ef          	jal	ra,a524 <lwip_htons>
    3244:	0ff57513          	andi	a0,a0,255
                if (flags & TCP_PSH) {
    3248:	00857793          	andi	a5,a0,8
    324c:	02078c63          	beqz	a5,3284 <sniff_input+0x368>
                    f->tot_pkts++;
    3250:	0049a783          	lw	a5,4(s3)
    3254:	00178793          	addi	a5,a5,1
    3258:	00f9a223          	sw	a5,4(s3)
                    f->tot_bytes  += p->tot_len;
    325c:	0084d703          	lhu	a4,8(s1)
    3260:	0089a783          	lw	a5,8(s3)
    3264:	00e787b3          	add	a5,a5,a4
    3268:	00f9a423          	sw	a5,8(s3)
                    if (dport == IPERF_PORT) {
    326c:	000017b7          	lui	a5,0x1
    3270:	38978793          	addi	a5,a5,905 # 1389 <_malloc_r+0x255>
    3274:	02fb8a63          	beq	s7,a5,32a8 <sniff_input+0x38c>
                        f->dst_pkts++;
    3278:	0109a783          	lw	a5,16(s3)
    327c:	00178793          	addi	a5,a5,1
    3280:	00f9a823          	sw	a5,16(s3)
                if ((flags & TCP_FIN) || (flags & TCP_RST)) {
    3284:	00557513          	andi	a0,a0,5
    3288:	d60506e3          	beqz	a0,2ff4 <sniff_input+0xd8>
                    if (f->tot_pkts > 0) {
    328c:	0049a783          	lw	a5,4(s3)
    3290:	02079c63          	bnez	a5,32c8 <sniff_input+0x3ac>
                    *pp = f->next;
    3294:	0189a783          	lw	a5,24(s3)
    3298:	00f42023          	sw	a5,0(s0)
                    free(f);
    329c:	00098513          	mv	a0,s3
    32a0:	e85fd0ef          	jal	ra,1124 <free>
    32a4:	d51ff06f          	j	2ff4 <sniff_input+0xd8>
                        f->src_pkts++;
    32a8:	00c9a783          	lw	a5,12(s3)
    32ac:	00178793          	addi	a5,a5,1
    32b0:	00f9a623          	sw	a5,12(s3)
                        f->src_bytes += p->tot_len;
    32b4:	0084d703          	lhu	a4,8(s1)
    32b8:	0149a783          	lw	a5,20(s3)
    32bc:	00e787b3          	add	a5,a5,a4
    32c0:	00f9aa23          	sw	a5,20(s3)
    32c4:	fc1ff06f          	j	3284 <sniff_input+0x368>
                        uint64_t t0 = machineTimer_getTime(BSP_MACHINE_TIMER);
    32c8:	f8b00537          	lui	a0,0xf8b00
    32cc:	c28ff0ef          	jal	ra,26f4 <clint_getTime>
    32d0:	00050913          	mv	s2,a0
    32d4:	00058a93          	mv	s5,a1
                            (float)f->sport,
    32d8:	0009d503          	lhu	a0,0(s3)
    32dc:	4fc190ef          	jal	ra,1c7d8 <__floatunsisf>
                        packet_anomaly_detector_predict((float[]){
    32e0:	00a12023          	sw	a0,0(sp)
                            (float)f->tot_pkts,
    32e4:	0049a503          	lw	a0,4(s3)
    32e8:	4f0190ef          	jal	ra,1c7d8 <__floatunsisf>
                        packet_anomaly_detector_predict((float[]){
    32ec:	00a12223          	sw	a0,4(sp)
                            (float)f->tot_bytes,
    32f0:	0089a503          	lw	a0,8(s3)
    32f4:	4e4190ef          	jal	ra,1c7d8 <__floatunsisf>
                        packet_anomaly_detector_predict((float[]){
    32f8:	00a12423          	sw	a0,8(sp)
                            (float)f->src_pkts,
    32fc:	00c9a503          	lw	a0,12(s3)
    3300:	4d8190ef          	jal	ra,1c7d8 <__floatunsisf>
                        packet_anomaly_detector_predict((float[]){
    3304:	00a12623          	sw	a0,12(sp)
                            (float)f->dst_pkts,
    3308:	0109a503          	lw	a0,16(s3)
    330c:	4cc190ef          	jal	ra,1c7d8 <__floatunsisf>
                        packet_anomaly_detector_predict((float[]){
    3310:	00a12823          	sw	a0,16(sp)
                            (float)f->src_bytes
    3314:	0149a503          	lw	a0,20(s3)
    3318:	4c0190ef          	jal	ra,1c7d8 <__floatunsisf>
                        packet_anomaly_detector_predict((float[]){
    331c:	00a12a23          	sw	a0,20(sp)
    3320:	00600593          	li	a1,6
    3324:	00010513          	mv	a0,sp
    3328:	bbdff0ef          	jal	ra,2ee4 <packet_anomaly_detector_predict>
                        uint64_t t1 = machineTimer_getTime(BSP_MACHINE_TIMER);
    332c:	f8b00537          	lui	a0,0xf8b00
    3330:	bc4ff0ef          	jal	ra,26f4 <clint_getTime>
                        uint32_t us = (uint32_t)((t1 - t0) * 1000000ULL / SYSTEM_MACHINE_TIMER_HZ);
    3334:	41250933          	sub	s2,a0,s2
    3338:	012537b3          	sltu	a5,a0,s2
    333c:	415585b3          	sub	a1,a1,s5
    3340:	40f587b3          	sub	a5,a1,a5
    3344:	000f4737          	lui	a4,0xf4
    3348:	24070713          	addi	a4,a4,576 # f4240 <__freertos_irq_stack_top+0xced50>
    334c:	02e787b3          	mul	a5,a5,a4
    3350:	02e936b3          	mulhu	a3,s2,a4
    3354:	00d785b3          	add	a1,a5,a3
    3358:	0bebc637          	lui	a2,0xbebc
    335c:	20060613          	addi	a2,a2,512 # bebc200 <__freertos_irq_stack_top+0xbe96d10>
    3360:	00000693          	li	a3,0
    3364:	02e90533          	mul	a0,s2,a4
    3368:	1dc180ef          	jal	ra,1b544 <__udivdi3>
                        bsp_printf(
    336c:	00050893          	mv	a7,a0
    3370:	0149a803          	lw	a6,20(s3)
    3374:	0109a783          	lw	a5,16(s3)
    3378:	00c9a703          	lw	a4,12(s3)
    337c:	0089a683          	lw	a3,8(s3)
    3380:	0049a603          	lw	a2,4(s3)
    3384:	0009d583          	lhu	a1,0(s3)
    3388:	0001d537          	lui	a0,0x1d
    338c:	b1c50513          	addi	a0,a0,-1252 # 1cb1c <packet_anomaly_detector_means+0x8c>
    3390:	e7cff0ef          	jal	ra,2a0c <bsp_printf>
    3394:	f01ff06f          	j	3294 <sniff_input+0x378>
                    f->src_pkts++;
    3398:	00c9a783          	lw	a5,12(s3)
    339c:	00178793          	addi	a5,a5,1
    33a0:	00f9a623          	sw	a5,12(s3)
                    f->src_bytes += p->tot_len;
    33a4:	0084d703          	lhu	a4,8(s1)
    33a8:	0149a783          	lw	a5,20(s3)
    33ac:	00e787b3          	add	a5,a5,a4
    33b0:	00f9aa23          	sw	a5,20(s3)
    33b4:	d99ff06f          	j	314c <sniff_input+0x230>

000033b8 <sys_jiffies>:
u32_t sys_jiffies(void) {
    33b8:	ff010113          	addi	sp,sp,-16
    33bc:	00112623          	sw	ra,12(sp)
    u32 t = machineTimer_getTime(BSP_MACHINE_TIMER);
    33c0:	f8b00537          	lui	a0,0xf8b00
    33c4:	b30ff0ef          	jal	ra,26f4 <clint_getTime>
    return (t * 1000U) / SYSTEM_MACHINE_TIMER_HZ;
    33c8:	3e800793          	li	a5,1000
    33cc:	02f50533          	mul	a0,a0,a5
}
    33d0:	0bebc7b7          	lui	a5,0xbebc
    33d4:	20078793          	addi	a5,a5,512 # bebc200 <__freertos_irq_stack_top+0xbe96d10>
    33d8:	02f55533          	divu	a0,a0,a5
    33dc:	00c12083          	lw	ra,12(sp)
    33e0:	01010113          	addi	sp,sp,16
    33e4:	00008067          	ret

000033e8 <sys_now>:
u32_t sys_now(void) { return sys_jiffies(); }
    33e8:	ff010113          	addi	sp,sp,-16
    33ec:	00112623          	sw	ra,12(sp)
    33f0:	fc9ff0ef          	jal	ra,33b8 <sys_jiffies>
    33f4:	00c12083          	lw	ra,12(sp)
    33f8:	01010113          	addi	sp,sp,16
    33fc:	00008067          	ret

00003400 <interrupt_init>:
void interrupt_init(void) {
    3400:	ff010113          	addi	sp,sp,-16
    3404:	00112623          	sw	ra,12(sp)
    plic_set_threshold(BSP_PLIC, BSP_PLIC_CPU_0, 0);
    3408:	00000613          	li	a2,0
    340c:	00000593          	li	a1,0
    3410:	f8c00537          	lui	a0,0xf8c00
    3414:	d88ff0ef          	jal	ra,299c <plic_set_threshold>
    plic_set_priority(BSP_PLIC, SYSTEM_PLIC_USER_INTERRUPT_A_INTERRUPT, 1);
    3418:	00100613          	li	a2,1
    341c:	01000593          	li	a1,16
    3420:	f8c00537          	lui	a0,0xf8c00
    3424:	d1cff0ef          	jal	ra,2940 <plic_set_priority>
    plic_set_enable(BSP_PLIC, BSP_PLIC_CPU_0,
    3428:	00100693          	li	a3,1
    342c:	01000613          	li	a2,16
    3430:	00000593          	li	a1,0
    3434:	f8c00537          	lui	a0,0xf8c00
    3438:	d18ff0ef          	jal	ra,2950 <plic_set_enable>
    csr_write(mtvec, trap_entry);
    343c:	0001b7b7          	lui	a5,0x1b
    3440:	4b478793          	addi	a5,a5,1204 # 1b4b4 <trap_entry>
    3444:	30579073          	csrw	mtvec,a5
    csr_set(mie, MIE_MEIE);
    3448:	000017b7          	lui	a5,0x1
    344c:	80078793          	addi	a5,a5,-2048 # 800 <regnum_t6+0x7e1>
    3450:	3047a073          	csrs	mie,a5
    csr_write(mstatus, MSTATUS_MPP | MSTATUS_MIE);
    3454:	000027b7          	lui	a5,0x2
    3458:	80878793          	addi	a5,a5,-2040 # 1808 <_malloc_r+0x6d4>
    345c:	30079073          	csrw	mstatus,a5
}
    3460:	00c12083          	lw	ra,12(sp)
    3464:	01010113          	addi	sp,sp,16
    3468:	00008067          	ret

0000346c <crash>:
void crash(void) {
    346c:	ff010113          	addi	sp,sp,-16
    3470:	00112623          	sw	ra,12(sp)
    bsp_printf("\n*** CRASH ***\n");
    3474:	0001d537          	lui	a0,0x1d
    3478:	bd050513          	addi	a0,a0,-1072 # 1cbd0 <packet_anomaly_detector_means+0x140>
    347c:	d90ff0ef          	jal	ra,2a0c <bsp_printf>
    while (1) {}
    3480:	0000006f          	j	3480 <crash+0x14>

00003484 <userInterrupt>:
void userInterrupt(void) {
    3484:	ff010113          	addi	sp,sp,-16
    3488:	00112623          	sw	ra,12(sp)
    348c:	00812423          	sw	s0,8(sp)
    flush_data_cache();
    3490:	191020ef          	jal	ra,5e20 <flush_data_cache>
    while ((claim = plic_claim(BSP_PLIC, BSP_PLIC_CPU_0))) {
    3494:	00000593          	li	a1,0
    3498:	f8c00537          	lui	a0,0xf8c00
    349c:	d18ff0ef          	jal	ra,29b4 <plic_claim>
    34a0:	00050413          	mv	s0,a0
    34a4:	02050863          	beqz	a0,34d4 <userInterrupt+0x50>
        if (claim == SYSTEM_PLIC_USER_INTERRUPT_A_INTERRUPT) {
    34a8:	01000793          	li	a5,16
    34ac:	02f41263          	bne	s0,a5,34d0 <userInterrupt+0x4c>
            ethernetif_input(&gnetif);
    34b0:	96818513          	addi	a0,gp,-1688 # 20110 <gnetif>
    34b4:	309020ef          	jal	ra,5fbc <ethernetif_input>
            sys_check_timeouts();
    34b8:	43c0e0ef          	jal	ra,118f4 <sys_check_timeouts>
        plic_release(BSP_PLIC, BSP_PLIC_CPU_0, claim);
    34bc:	00040613          	mv	a2,s0
    34c0:	00000593          	li	a1,0
    34c4:	f8c00537          	lui	a0,0xf8c00
    34c8:	d08ff0ef          	jal	ra,29d0 <plic_release>
    34cc:	fc9ff06f          	j	3494 <userInterrupt+0x10>
        } else crash();
    34d0:	f9dff0ef          	jal	ra,346c <crash>
}
    34d4:	00c12083          	lw	ra,12(sp)
    34d8:	00812403          	lw	s0,8(sp)
    34dc:	01010113          	addi	sp,sp,16
    34e0:	00008067          	ret

000034e4 <trap>:
void trap(void) {
    34e4:	ff010113          	addi	sp,sp,-16
    34e8:	00112623          	sw	ra,12(sp)
    int32_t mc = csr_read(mcause);
    34ec:	342027f3          	csrr	a5,mcause
    if (mc < 0 && (mc & 0xF) == CAUSE_MACHINE_EXTERNAL) userInterrupt();
    34f0:	0207d063          	bgez	a5,3510 <trap+0x2c>
    34f4:	00f7f793          	andi	a5,a5,15
    34f8:	00b00713          	li	a4,11
    34fc:	00e79a63          	bne	a5,a4,3510 <trap+0x2c>
    3500:	f85ff0ef          	jal	ra,3484 <userInterrupt>
}
    3504:	00c12083          	lw	ra,12(sp)
    3508:	01010113          	addi	sp,sp,16
    350c:	00008067          	ret
    else crash();
    3510:	f5dff0ef          	jal	ra,346c <crash>

00003514 <main>:

int main(void) {
    3514:	fd010113          	addi	sp,sp,-48
    3518:	02112623          	sw	ra,44(sp)
    351c:	02812423          	sw	s0,40(sp)
    3520:	02912223          	sw	s1,36(sp)
    int speed = Speed_1000Mhz, link_speed = 0;
    MacRst(0, 0);
    3524:	00000593          	li	a1,0
    3528:	00000513          	li	a0,0
    352c:	0a1000ef          	jal	ra,3dcc <MacRst>
    interrupt_init();
    3530:	ed1ff0ef          	jal	ra,3400 <interrupt_init>
    dmasg_priority(DMASG_BASE, DMASG_CHANNEL0, 0, 0);
    3534:	00000693          	li	a3,0
    3538:	00000613          	li	a2,0
    353c:	00000593          	li	a1,0
    3540:	f8110537          	lui	a0,0xf8110
    3544:	be4ff0ef          	jal	ra,2928 <dmasg_priority>
    dmasg_priority(DMASG_BASE, DMASG_CHANNEL1, 0, 0);
    3548:	00000693          	li	a3,0
    354c:	00000613          	li	a2,0
    3550:	00100593          	li	a1,1
    3554:	f8110537          	lui	a0,0xf8110
    3558:	bd0ff0ef          	jal	ra,2928 <dmasg_priority>

    bsp_printf("Phy Init...\r\n");
    355c:	0001d537          	lui	a0,0x1d
    3560:	be050513          	addi	a0,a0,-1056 # 1cbe0 <packet_anomaly_detector_means+0x150>
    3564:	ca8ff0ef          	jal	ra,2a0c <bsp_printf>
    rtl8211_drv_init();
    3568:	709000ef          	jal	ra,4470 <rtl8211_drv_init>
    bsp_printf("Waiting Link Up...\r\n");
    356c:	0001d537          	lui	a0,0x1d
    3570:	bf050513          	addi	a0,a0,-1040 # 1cbf0 <packet_anomaly_detector_means+0x160>
    3574:	c98ff0ef          	jal	ra,2a0c <bsp_printf>
    speed = rtl8211_drv_linkup();
    3578:	5f5000ef          	jal	ra,436c <rtl8211_drv_linkup>
    357c:	00050413          	mv	s0,a0
    if (speed == Speed_1000Mhz) link_speed = 1000;
    3580:	00400793          	li	a5,4
    3584:	00f50e63          	beq	a0,a5,35a0 <main+0x8c>
    else if (speed == Speed_100Mhz) link_speed = 100;
    3588:	00200793          	li	a5,2
    358c:	08f50c63          	beq	a0,a5,3624 <main+0x110>
    else if (speed == Speed_10Mhz) link_speed = 10;
    3590:	00100793          	li	a5,1
    3594:	08f50c63          	beq	a0,a5,362c <main+0x118>
    int speed = Speed_1000Mhz, link_speed = 0;
    3598:	00000493          	li	s1,0
    359c:	0080006f          	j	35a4 <main+0x90>
    if (speed == Speed_1000Mhz) link_speed = 1000;
    35a0:	3e800493          	li	s1,1000
    clock_sel(speed);
    35a4:	00040513          	mv	a0,s0
    35a8:	c44ff0ef          	jal	ra,29ec <clock_sel>
    MacNormalInit(speed);
    35ac:	00040513          	mv	a0,s0
    35b0:	0a9000ef          	jal	ra,3e58 <MacNormalInit>

    LwIP_Init();
    35b4:	d90ff0ef          	jal	ra,2b44 <LwIP_Init>
    lwiperf_start_tcp_server(&ipaddr, IPERF_PORT, NULL, NULL);
    35b8:	00000693          	li	a3,0
    35bc:	00000613          	li	a2,0
    35c0:	000015b7          	lui	a1,0x1
    35c4:	38958593          	addi	a1,a1,905 # 1389 <_malloc_r+0x255>
    35c8:	8e818513          	addi	a0,gp,-1816 # 20090 <ipaddr>
    35cc:	785010ef          	jal	ra,5550 <lwiperf_start_tcp_server>

    bsp_printf("iperf up: IP=%d.%d.%d.%d MASK=%d.%d.%d.%d "
    35d0:	00912a23          	sw	s1,20(sp)
    35d4:	00100793          	li	a5,1
    35d8:	00f12823          	sw	a5,16(sp)
    35dc:	01f00793          	li	a5,31
    35e0:	00f12623          	sw	a5,12(sp)
    35e4:	0a800793          	li	a5,168
    35e8:	00f12423          	sw	a5,8(sp)
    35ec:	0c000793          	li	a5,192
    35f0:	00f12223          	sw	a5,4(sp)
    35f4:	00012023          	sw	zero,0(sp)
    35f8:	0ff00893          	li	a7,255
    35fc:	0ff00813          	li	a6,255
    3600:	0ff00793          	li	a5,255
    3604:	03700713          	li	a4,55
    3608:	01f00693          	li	a3,31
    360c:	0a800613          	li	a2,168
    3610:	0c000593          	li	a1,192
    3614:	0001d537          	lui	a0,0x1d
    3618:	c0850513          	addi	a0,a0,-1016 # 1cc08 <packet_anomaly_detector_means+0x178>
    361c:	bf0ff0ef          	jal	ra,2a0c <bsp_printf>
    3620:	03c0006f          	j	365c <main+0x148>
    else if (speed == Speed_100Mhz) link_speed = 100;
    3624:	06400493          	li	s1,100
    3628:	f7dff06f          	j	35a4 <main+0x90>
    else if (speed == Speed_10Mhz) link_speed = 10;
    362c:	00a00493          	li	s1,10
    3630:	f75ff06f          	j	35a4 <main+0x90>
    for (;;) {
        if (check_dma_status(cur_des)) {
            ethernetif_input(&gnetif);
            sys_check_timeouts();
        } else {
            int st = rtl8211_drv_rddata(26);
    3634:	01a00513          	li	a0,26
    3638:	4b9000ef          	jal	ra,42f0 <rtl8211_drv_rddata>
            static int bLink = 1;
            if (!(st & 0x04) && bLink) {
    363c:	00457513          	andi	a0,a0,4
    3640:	00051663          	bnez	a0,364c <main+0x138>
    3644:	8101a783          	lw	a5,-2032(gp) # 1ffb8 <bLink.5372>
    3648:	02079863          	bnez	a5,3678 <main+0x164>
                bLink = 0; bsp_printf("Disconnected\r\n");
            } else if ((st & 0x04) && !bLink) {
    364c:	00050663          	beqz	a0,3658 <main+0x144>
    3650:	8101a783          	lw	a5,-2032(gp) # 1ffb8 <bLink.5372>
    3654:	02078c63          	beqz	a5,368c <main+0x178>
                speed = rtl8211_drv_linkup();
                clock_sel(speed);
                MacNormalInit(speed);
                bLink = 1; bsp_printf("Connected\r\n");
            }
            sys_check_timeouts();
    3658:	29c0e0ef          	jal	ra,118f4 <sys_check_timeouts>
        if (check_dma_status(cur_des)) {
    365c:	bcc1a503          	lw	a0,-1076(gp) # 20374 <cur_des>
    3660:	129020ef          	jal	ra,5f88 <check_dma_status>
    3664:	fc0508e3          	beqz	a0,3634 <main+0x120>
            ethernetif_input(&gnetif);
    3668:	96818513          	addi	a0,gp,-1688 # 20110 <gnetif>
    366c:	151020ef          	jal	ra,5fbc <ethernetif_input>
            sys_check_timeouts();
    3670:	2840e0ef          	jal	ra,118f4 <sys_check_timeouts>
    3674:	fe9ff06f          	j	365c <main+0x148>
                bLink = 0; bsp_printf("Disconnected\r\n");
    3678:	8001a823          	sw	zero,-2032(gp) # 1ffb8 <bLink.5372>
    367c:	0001d537          	lui	a0,0x1d
    3680:	c5050513          	addi	a0,a0,-944 # 1cc50 <packet_anomaly_detector_means+0x1c0>
    3684:	b88ff0ef          	jal	ra,2a0c <bsp_printf>
    3688:	fd1ff06f          	j	3658 <main+0x144>
                speed = rtl8211_drv_linkup();
    368c:	4e1000ef          	jal	ra,436c <rtl8211_drv_linkup>
    3690:	00050413          	mv	s0,a0
                clock_sel(speed);
    3694:	b58ff0ef          	jal	ra,29ec <clock_sel>
                MacNormalInit(speed);
    3698:	00040513          	mv	a0,s0
    369c:	7bc000ef          	jal	ra,3e58 <MacNormalInit>
                bLink = 1; bsp_printf("Connected\r\n");
    36a0:	00100713          	li	a4,1
    36a4:	80e1a823          	sw	a4,-2032(gp) # 1ffb8 <bLink.5372>
    36a8:	0001d537          	lui	a0,0x1d
    36ac:	c6050513          	addi	a0,a0,-928 # 1cc60 <packet_anomaly_detector_means+0x1d0>
    36b0:	b5cff0ef          	jal	ra,2a0c <bsp_printf>
    36b4:	fa5ff06f          	j	3658 <main+0x144>

000036b8 <uart_writeAvailability>:
        return *((volatile u32*) address);
    36b8:	00452503          	lw	a0,4(a0)
        return (read_u32(reg + UART_STATUS) >> 16) & 0xFF;
    36bc:	01055513          	srli	a0,a0,0x10
    }
    36c0:	0ff57513          	andi	a0,a0,255
    36c4:	00008067          	ret

000036c8 <uart_write>:
    static void uart_write(u32 reg, char data){
    36c8:	ff010113          	addi	sp,sp,-16
    36cc:	00112623          	sw	ra,12(sp)
    36d0:	00812423          	sw	s0,8(sp)
    36d4:	00912223          	sw	s1,4(sp)
    36d8:	00050413          	mv	s0,a0
    36dc:	00058493          	mv	s1,a1
        while(uart_writeAvailability(reg) == 0);
    36e0:	00040513          	mv	a0,s0
    36e4:	fd5ff0ef          	jal	ra,36b8 <uart_writeAvailability>
    36e8:	fe050ce3          	beqz	a0,36e0 <uart_write+0x18>
        *((volatile u32*) address) = data;
    36ec:	00942023          	sw	s1,0(s0)
    }
    36f0:	00c12083          	lw	ra,12(sp)
    36f4:	00812403          	lw	s0,8(sp)
    36f8:	00412483          	lw	s1,4(sp)
    36fc:	01010113          	addi	sp,sp,16
    3700:	00008067          	ret

00003704 <clint_uDelay>:
    
    static void clint_uDelay(u32 usec, u32 hz, u32 reg){
        u32 mTimePerUsec = hz/1000000;
    3704:	000f47b7          	lui	a5,0xf4
    3708:	24078793          	addi	a5,a5,576 # f4240 <__freertos_irq_stack_top+0xced50>
    370c:	02f5d5b3          	divu	a1,a1,a5
    readReg_u32 (clint_getTimeLow , CLINT_TIME_ADDR)
    3710:	0000c7b7          	lui	a5,0xc
    3714:	ff878793          	addi	a5,a5,-8 # bff8 <netif_add>
    3718:	00f60633          	add	a2,a2,a5
        return *((volatile u32*) address);
    371c:	00062783          	lw	a5,0(a2)
        u32 limit = clint_getTimeLow(reg) + usec*mTimePerUsec;
    3720:	02a58533          	mul	a0,a1,a0
    3724:	00f50533          	add	a0,a0,a5
    3728:	00062783          	lw	a5,0(a2)
        while((int32_t)(limit-(clint_getTimeLow(reg))) >= 0);
    372c:	40f507b3          	sub	a5,a0,a5
    3730:	fe07dce3          	bgez	a5,3728 <clint_uDelay+0x24>
    }
    3734:	00008067          	ret

00003738 <bsp_printHex>:
    {
    3738:	ff010113          	addi	sp,sp,-16
    373c:	00112623          	sw	ra,12(sp)
    3740:	00812423          	sw	s0,8(sp)
    3744:	00912223          	sw	s1,4(sp)
    3748:	00050493          	mv	s1,a0
        for (int i = (4*digits)-4; i >= 0; i -= 4) {
    374c:	01c00413          	li	s0,28
    3750:	0280006f          	j	3778 <bsp_printHex+0x40>
            uart_write(BSP_UART_TERMINAL, "0123456789ABCDEF"[(val >> i) % 16]);
    3754:	0084d7b3          	srl	a5,s1,s0
    3758:	00f7f713          	andi	a4,a5,15
    375c:	0001d7b7          	lui	a5,0x1d
    3760:	aa878793          	addi	a5,a5,-1368 # 1caa8 <packet_anomaly_detector_means+0x18>
    3764:	00e787b3          	add	a5,a5,a4
    3768:	0007c583          	lbu	a1,0(a5)
    376c:	f8010537          	lui	a0,0xf8010
    3770:	f59ff0ef          	jal	ra,36c8 <uart_write>
        for (int i = (4*digits)-4; i >= 0; i -= 4) {
    3774:	ffc40413          	addi	s0,s0,-4
    3778:	fc045ee3          	bgez	s0,3754 <bsp_printHex+0x1c>
    }
    377c:	00c12083          	lw	ra,12(sp)
    3780:	00812403          	lw	s0,8(sp)
    3784:	00412483          	lw	s1,4(sp)
    3788:	01010113          	addi	sp,sp,16
    378c:	00008067          	ret

00003790 <bsp_printHex_lower>:
        {
    3790:	ff010113          	addi	sp,sp,-16
    3794:	00112623          	sw	ra,12(sp)
    3798:	00812423          	sw	s0,8(sp)
    379c:	00912223          	sw	s1,4(sp)
    37a0:	00050493          	mv	s1,a0
            for (int i = (4*digits)-4; i >= 0; i -= 4) {
    37a4:	01c00413          	li	s0,28
    37a8:	0280006f          	j	37d0 <bsp_printHex_lower+0x40>
                uart_write(BSP_UART_TERMINAL, "0123456789abcdef"[(val >> i) % 16]);
    37ac:	0084d7b3          	srl	a5,s1,s0
    37b0:	00f7f713          	andi	a4,a5,15
    37b4:	0001d7b7          	lui	a5,0x1d
    37b8:	abc78793          	addi	a5,a5,-1348 # 1cabc <packet_anomaly_detector_means+0x2c>
    37bc:	00e787b3          	add	a5,a5,a4
    37c0:	0007c583          	lbu	a1,0(a5)
    37c4:	f8010537          	lui	a0,0xf8010
    37c8:	f01ff0ef          	jal	ra,36c8 <uart_write>
            for (int i = (4*digits)-4; i >= 0; i -= 4) {
    37cc:	ffc40413          	addi	s0,s0,-4
    37d0:	fc045ee3          	bgez	s0,37ac <bsp_printHex_lower+0x1c>
        }
    37d4:	00c12083          	lw	ra,12(sp)
    37d8:	00812403          	lw	s0,8(sp)
    37dc:	00412483          	lw	s1,4(sp)
    37e0:	01010113          	addi	sp,sp,16
    37e4:	00008067          	ret

000037e8 <bsp_printf_c>:
    {
    37e8:	ff010113          	addi	sp,sp,-16
    37ec:	00112623          	sw	ra,12(sp)
        bsp_putChar(c);
    37f0:	0ff57593          	andi	a1,a0,255
    37f4:	f8010537          	lui	a0,0xf8010
    37f8:	ed1ff0ef          	jal	ra,36c8 <uart_write>
    }
    37fc:	00c12083          	lw	ra,12(sp)
    3800:	01010113          	addi	sp,sp,16
    3804:	00008067          	ret

00003808 <bsp_printf_s>:
    {
    3808:	ff010113          	addi	sp,sp,-16
    380c:	00112623          	sw	ra,12(sp)
    3810:	00812423          	sw	s0,8(sp)
    3814:	00050413          	mv	s0,a0
        while (*p)
    3818:	00044583          	lbu	a1,0(s0)
    381c:	00058a63          	beqz	a1,3830 <bsp_printf_s+0x28>
            bsp_putChar(*(p++));
    3820:	00140413          	addi	s0,s0,1
    3824:	f8010537          	lui	a0,0xf8010
    3828:	ea1ff0ef          	jal	ra,36c8 <uart_write>
    382c:	fedff06f          	j	3818 <bsp_printf_s+0x10>
    }
    3830:	00c12083          	lw	ra,12(sp)
    3834:	00812403          	lw	s0,8(sp)
    3838:	01010113          	addi	sp,sp,16
    383c:	00008067          	ret

00003840 <bsp_printf_d>:
    {
    3840:	fd010113          	addi	sp,sp,-48
    3844:	02112623          	sw	ra,44(sp)
    3848:	02812423          	sw	s0,40(sp)
    384c:	02912223          	sw	s1,36(sp)
    3850:	00050493          	mv	s1,a0
        if (val < 0) {
    3854:	00054663          	bltz	a0,3860 <bsp_printf_d+0x20>
    {
    3858:	00010413          	mv	s0,sp
    385c:	02c0006f          	j	3888 <bsp_printf_d+0x48>
            bsp_printf_c('-');
    3860:	02d00513          	li	a0,45
    3864:	f85ff0ef          	jal	ra,37e8 <bsp_printf_c>
            val = -val;
    3868:	409004b3          	neg	s1,s1
    386c:	fedff06f          	j	3858 <bsp_printf_d+0x18>
            *(p++) = '0' + val % 10;
    3870:	00a00713          	li	a4,10
    3874:	02e4e7b3          	rem	a5,s1,a4
    3878:	03078793          	addi	a5,a5,48
    387c:	00f40023          	sb	a5,0(s0)
            val = val / 10;
    3880:	02e4c4b3          	div	s1,s1,a4
            *(p++) = '0' + val % 10;
    3884:	00140413          	addi	s0,s0,1
        while (val || p == buffer) {
    3888:	fe0494e3          	bnez	s1,3870 <bsp_printf_d+0x30>
    388c:	00010793          	mv	a5,sp
    3890:	fef400e3          	beq	s0,a5,3870 <bsp_printf_d+0x30>
    3894:	0100006f          	j	38a4 <bsp_printf_d+0x64>
            bsp_printf_c(*(--p));
    3898:	fff40413          	addi	s0,s0,-1
    389c:	00044503          	lbu	a0,0(s0)
    38a0:	f49ff0ef          	jal	ra,37e8 <bsp_printf_c>
        while (p != buffer)
    38a4:	00010793          	mv	a5,sp
    38a8:	fef418e3          	bne	s0,a5,3898 <bsp_printf_d+0x58>
    }
    38ac:	02c12083          	lw	ra,44(sp)
    38b0:	02812403          	lw	s0,40(sp)
    38b4:	02412483          	lw	s1,36(sp)
    38b8:	03010113          	addi	sp,sp,48
    38bc:	00008067          	ret

000038c0 <bsp_printf_x>:
    {
    38c0:	ff010113          	addi	sp,sp,-16
    38c4:	00112623          	sw	ra,12(sp)
        for(i=0;i<8;i++)
    38c8:	00000713          	li	a4,0
    38cc:	00700793          	li	a5,7
    38d0:	02e7c063          	blt	a5,a4,38f0 <bsp_printf_x+0x30>
            if((val & (0xFFFFFFF0 <<(4*i))) == 0)
    38d4:	00271693          	slli	a3,a4,0x2
    38d8:	ff000793          	li	a5,-16
    38dc:	00d797b3          	sll	a5,a5,a3
    38e0:	00f577b3          	and	a5,a0,a5
    38e4:	00078663          	beqz	a5,38f0 <bsp_printf_x+0x30>
        for(i=0;i<8;i++)
    38e8:	00170713          	addi	a4,a4,1
    38ec:	fe1ff06f          	j	38cc <bsp_printf_x+0xc>
        bsp_printHex_lower(val);
    38f0:	ea1ff0ef          	jal	ra,3790 <bsp_printHex_lower>
    }
    38f4:	00c12083          	lw	ra,12(sp)
    38f8:	01010113          	addi	sp,sp,16
    38fc:	00008067          	ret

00003900 <bsp_printf_X>:
        {
    3900:	ff010113          	addi	sp,sp,-16
    3904:	00112623          	sw	ra,12(sp)
            for(i=0;i<8;i++)
    3908:	00000713          	li	a4,0
    390c:	00700793          	li	a5,7
    3910:	02e7c063          	blt	a5,a4,3930 <bsp_printf_X+0x30>
                if((val & (0xFFFFFFF0 <<(4*i))) == 0)
    3914:	00271693          	slli	a3,a4,0x2
    3918:	ff000793          	li	a5,-16
    391c:	00d797b3          	sll	a5,a5,a3
    3920:	00f577b3          	and	a5,a0,a5
    3924:	00078663          	beqz	a5,3930 <bsp_printf_X+0x30>
            for(i=0;i<8;i++)
    3928:	00170713          	addi	a4,a4,1
    392c:	fe1ff06f          	j	390c <bsp_printf_X+0xc>
            bsp_printHex(val);
    3930:	e09ff0ef          	jal	ra,3738 <bsp_printHex>
        }
    3934:	00c12083          	lw	ra,12(sp)
    3938:	01010113          	addi	sp,sp,16
    393c:	00008067          	ret

00003940 <bsp_printf>:
    {
    3940:	fc010113          	addi	sp,sp,-64
    3944:	00112e23          	sw	ra,28(sp)
    3948:	00812c23          	sw	s0,24(sp)
    394c:	00912a23          	sw	s1,20(sp)
    3950:	00050493          	mv	s1,a0
    3954:	02b12223          	sw	a1,36(sp)
    3958:	02c12423          	sw	a2,40(sp)
    395c:	02d12623          	sw	a3,44(sp)
    3960:	02e12823          	sw	a4,48(sp)
    3964:	02f12a23          	sw	a5,52(sp)
    3968:	03012c23          	sw	a6,56(sp)
    396c:	03112e23          	sw	a7,60(sp)
        va_start(ap, format);
    3970:	02410793          	addi	a5,sp,36
    3974:	00f12623          	sw	a5,12(sp)
        for (i = 0; format[i]; i++)
    3978:	00000413          	li	s0,0
    397c:	01c0006f          	j	3998 <bsp_printf+0x58>
                        bsp_printf_c(va_arg(ap,int));
    3980:	00c12783          	lw	a5,12(sp)
    3984:	00478713          	addi	a4,a5,4
    3988:	00e12623          	sw	a4,12(sp)
    398c:	0007a503          	lw	a0,0(a5)
    3990:	e59ff0ef          	jal	ra,37e8 <bsp_printf_c>
        for (i = 0; format[i]; i++)
    3994:	00140413          	addi	s0,s0,1
    3998:	008487b3          	add	a5,s1,s0
    399c:	0007c503          	lbu	a0,0(a5)
    39a0:	0c050263          	beqz	a0,3a64 <bsp_printf+0x124>
            if (format[i] == '%') {
    39a4:	02500793          	li	a5,37
    39a8:	06f50663          	beq	a0,a5,3a14 <bsp_printf+0xd4>
                bsp_printf_c(format[i]);
    39ac:	e3dff0ef          	jal	ra,37e8 <bsp_printf_c>
    39b0:	fe5ff06f          	j	3994 <bsp_printf+0x54>
                        bsp_printf_s(va_arg(ap,char*));
    39b4:	00c12783          	lw	a5,12(sp)
    39b8:	00478713          	addi	a4,a5,4
    39bc:	00e12623          	sw	a4,12(sp)
    39c0:	0007a503          	lw	a0,0(a5)
    39c4:	e45ff0ef          	jal	ra,3808 <bsp_printf_s>
                        break;
    39c8:	fcdff06f          	j	3994 <bsp_printf+0x54>
                        bsp_printf_d(va_arg(ap,int));
    39cc:	00c12783          	lw	a5,12(sp)
    39d0:	00478713          	addi	a4,a5,4
    39d4:	00e12623          	sw	a4,12(sp)
    39d8:	0007a503          	lw	a0,0(a5)
    39dc:	e65ff0ef          	jal	ra,3840 <bsp_printf_d>
                        break;
    39e0:	fb5ff06f          	j	3994 <bsp_printf+0x54>
                        bsp_printf_X(va_arg(ap,int));
    39e4:	00c12783          	lw	a5,12(sp)
    39e8:	00478713          	addi	a4,a5,4
    39ec:	00e12623          	sw	a4,12(sp)
    39f0:	0007a503          	lw	a0,0(a5)
    39f4:	f0dff0ef          	jal	ra,3900 <bsp_printf_X>
                        break;
    39f8:	f9dff06f          	j	3994 <bsp_printf+0x54>
                        bsp_printf_x(va_arg(ap,int));
    39fc:	00c12783          	lw	a5,12(sp)
    3a00:	00478713          	addi	a4,a5,4
    3a04:	00e12623          	sw	a4,12(sp)
    3a08:	0007a503          	lw	a0,0(a5)
    3a0c:	eb5ff0ef          	jal	ra,38c0 <bsp_printf_x>
                        break;
    3a10:	f85ff06f          	j	3994 <bsp_printf+0x54>
                while (format[++i]) {
    3a14:	00140413          	addi	s0,s0,1
    3a18:	008487b3          	add	a5,s1,s0
    3a1c:	0007c783          	lbu	a5,0(a5)
    3a20:	f6078ae3          	beqz	a5,3994 <bsp_printf+0x54>
                    if (format[i] == 'c') {
    3a24:	06300713          	li	a4,99
    3a28:	f4e78ce3          	beq	a5,a4,3980 <bsp_printf+0x40>
                    else if (format[i] == 's') {
    3a2c:	07300713          	li	a4,115
    3a30:	f8e782e3          	beq	a5,a4,39b4 <bsp_printf+0x74>
                    else if (format[i] == 'd') {
    3a34:	06400713          	li	a4,100
    3a38:	f8e78ae3          	beq	a5,a4,39cc <bsp_printf+0x8c>
                    else if (format[i] == 'X') {
    3a3c:	05800713          	li	a4,88
    3a40:	fae782e3          	beq	a5,a4,39e4 <bsp_printf+0xa4>
                    else if (format[i] == 'x') {
    3a44:	07800713          	li	a4,120
    3a48:	fae78ae3          	beq	a5,a4,39fc <bsp_printf+0xbc>
                    else if (format[i] == 'f') {
    3a4c:	06600713          	li	a4,102
    3a50:	fce792e3          	bne	a5,a4,3a14 <bsp_printf+0xd4>
                        bsp_printf_s("<Floating point printing not enable. Please Enable it at bsp.h first...>");
    3a54:	0001d537          	lui	a0,0x1d
    3a58:	ad050513          	addi	a0,a0,-1328 # 1cad0 <packet_anomaly_detector_means+0x40>
    3a5c:	dadff0ef          	jal	ra,3808 <bsp_printf_s>
                        break;
    3a60:	f35ff06f          	j	3994 <bsp_printf+0x54>
    }
    3a64:	01c12083          	lw	ra,28(sp)
    3a68:	01812403          	lw	s0,24(sp)
    3a6c:	01412483          	lw	s1,20(sp)
    3a70:	04010113          	addi	sp,sp,64
    3a74:	00008067          	ret

00003a78 <control_reset>:
#include "compatibility.h"


void control_reset (struct cmn_reset *rst)
{
	write_u32(*(uint32_t *)rst, IO_APB_SLAVE_2_APB+0x08);
    3a78:	00052703          	lw	a4,0(a0)
        *((volatile u32*) address) = data;
    3a7c:	f81207b7          	lui	a5,0xf8120
    3a80:	00e7a423          	sw	a4,8(a5) # f8120008 <__freertos_irq_stack_top+0xf80fab18>
}
    3a84:	00008067          	ret

00003a88 <MacTxEn>:

/************************** Function File ***************************/
void MacTxEn(u32 tx_en)
{
    3a88:	ff010113          	addi	sp,sp,-16
    3a8c:	00112623          	sw	ra,12(sp)
    3a90:	00812423          	sw	s0,8(sp)
    3a94:	00912223          	sw	s1,4(sp)
    3a98:	00050413          	mv	s0,a0
	u32 Value;
	//Set Mac TxEn
	Value = Reg_In32(XPAR_SYS_AXI_BASEADDR+COMMAND_CONFIG) & TX_ENA_MASK;
    3a9c:	f81004b7          	lui	s1,0xf8100
    3aa0:	00848513          	addi	a0,s1,8 # f8100008 <__freertos_irq_stack_top+0xf80dab18>
    3aa4:	535010ef          	jal	ra,57d8 <Reg_In32>
    3aa8:	ffe57593          	andi	a1,a0,-2
	Value |= (tx_en&0x1)<<0;
    3aac:	00147413          	andi	s0,s0,1
	Reg_Out32((XPAR_SYS_AXI_BASEADDR+COMMAND_CONFIG), Value);//mac_reg command_config Reg
    3ab0:	00b465b3          	or	a1,s0,a1
    3ab4:	00848513          	addi	a0,s1,8
    3ab8:	519010ef          	jal	ra,57d0 <Reg_Out32>
	if(PRINTF_EN == 1) {
		bsp_printf("Info : Set Mac TxEn.\r\n");
	}
}
    3abc:	00c12083          	lw	ra,12(sp)
    3ac0:	00812403          	lw	s0,8(sp)
    3ac4:	00412483          	lw	s1,4(sp)
    3ac8:	01010113          	addi	sp,sp,16
    3acc:	00008067          	ret

00003ad0 <MacRxEn>:

/************************** Function File ***************************/
void MacRxEn(u32 rx_en)
{
    3ad0:	ff010113          	addi	sp,sp,-16
    3ad4:	00112623          	sw	ra,12(sp)
    3ad8:	00812423          	sw	s0,8(sp)
    3adc:	00912223          	sw	s1,4(sp)
    3ae0:	00050413          	mv	s0,a0
	u32 Value;
	//Set Mac RxEn
	Value = Reg_In32(XPAR_SYS_AXI_BASEADDR+COMMAND_CONFIG) & RX_ENA_MASK;
    3ae4:	f81004b7          	lui	s1,0xf8100
    3ae8:	00848513          	addi	a0,s1,8 # f8100008 <__freertos_irq_stack_top+0xf80dab18>
    3aec:	4ed010ef          	jal	ra,57d8 <Reg_In32>
    3af0:	ffd57593          	andi	a1,a0,-3
	Value |= (rx_en&0x1)<<1;
    3af4:	00141413          	slli	s0,s0,0x1
    3af8:	00247413          	andi	s0,s0,2
	Reg_Out32((XPAR_SYS_AXI_BASEADDR+COMMAND_CONFIG), Value);//mac_reg command_config Reg
    3afc:	00b465b3          	or	a1,s0,a1
    3b00:	00848513          	addi	a0,s1,8
    3b04:	4cd010ef          	jal	ra,57d0 <Reg_Out32>
	if(PRINTF_EN == 1) {
		bsp_printf("Info : Set Mac RxEn.\r\n");
	}
}
    3b08:	00c12083          	lw	ra,12(sp)
    3b0c:	00812403          	lw	s0,8(sp)
    3b10:	00412483          	lw	s1,4(sp)
    3b14:	01010113          	addi	sp,sp,16
    3b18:	00008067          	ret

00003b1c <MacSpeedSet>:

/************************** Function File ***************************/
void MacSpeedSet(u32 speed)
{
    3b1c:	ff010113          	addi	sp,sp,-16
    3b20:	00112623          	sw	ra,12(sp)
    3b24:	00812423          	sw	s0,8(sp)
    3b28:	00912223          	sw	s1,4(sp)
    3b2c:	00050413          	mv	s0,a0
	u32 Value;
	//Set Mac Speed
	Value = Reg_In32(XPAR_SYS_AXI_BASEADDR+COMMAND_CONFIG) & ETH_SPEED_MASK;
    3b30:	f81004b7          	lui	s1,0xf8100
    3b34:	00848513          	addi	a0,s1,8 # f8100008 <__freertos_irq_stack_top+0xf80dab18>
    3b38:	4a1010ef          	jal	ra,57d8 <Reg_In32>
    3b3c:	fff905b7          	lui	a1,0xfff90
    3b40:	fff58593          	addi	a1,a1,-1 # fff8ffff <__freertos_irq_stack_top+0xfff6ab0f>
    3b44:	00b575b3          	and	a1,a0,a1
	Value |= (speed&0x7)<<16;
    3b48:	01041413          	slli	s0,s0,0x10
    3b4c:	000707b7          	lui	a5,0x70
    3b50:	00f47433          	and	s0,s0,a5
	Reg_Out32((XPAR_SYS_AXI_BASEADDR+COMMAND_CONFIG), Value);//mac_reg command_config Reg
    3b54:	00b465b3          	or	a1,s0,a1
    3b58:	00848513          	addi	a0,s1,8
    3b5c:	475010ef          	jal	ra,57d0 <Reg_Out32>
	if(PRINTF_EN == 1) {
		bsp_printf("Info : Set Mac Speed.\r\n");
	}
}
    3b60:	00c12083          	lw	ra,12(sp)
    3b64:	00812403          	lw	s0,8(sp)
    3b68:	00412483          	lw	s1,4(sp)
    3b6c:	01010113          	addi	sp,sp,16
    3b70:	00008067          	ret

00003b74 <MacLoopbackSet>:

/************************** Function File ***************************/
void MacLoopbackSet(u32 loopback_en)
{
    3b74:	ff010113          	addi	sp,sp,-16
    3b78:	00112623          	sw	ra,12(sp)
    3b7c:	00812423          	sw	s0,8(sp)
    3b80:	00912223          	sw	s1,4(sp)
    3b84:	00050413          	mv	s0,a0
	u32 Value;
	//Set Mac Loopback
	Value = Reg_In32(XPAR_SYS_AXI_BASEADDR+COMMAND_CONFIG) & LOOP_ENA_MASK;
    3b88:	f81004b7          	lui	s1,0xf8100
    3b8c:	00848513          	addi	a0,s1,8 # f8100008 <__freertos_irq_stack_top+0xf80dab18>
    3b90:	449010ef          	jal	ra,57d8 <Reg_In32>
    3b94:	ffff85b7          	lui	a1,0xffff8
    3b98:	fff58593          	addi	a1,a1,-1 # ffff7fff <__freertos_irq_stack_top+0xfffd2b0f>
    3b9c:	00b575b3          	and	a1,a0,a1
	Value |= (loopback_en&0x1)<<15;
    3ba0:	00f41413          	slli	s0,s0,0xf
    3ba4:	000107b7          	lui	a5,0x10
    3ba8:	fff78793          	addi	a5,a5,-1 # ffff <tcp_input+0xd7>
    3bac:	00f47433          	and	s0,s0,a5
	Reg_Out32((XPAR_SYS_AXI_BASEADDR+COMMAND_CONFIG), Value);//command_config Reg
    3bb0:	00b465b3          	or	a1,s0,a1
    3bb4:	00848513          	addi	a0,s1,8
    3bb8:	419010ef          	jal	ra,57d0 <Reg_Out32>
	if(PRINTF_EN == 1) {
		bsp_printf("Info : Set Mac Loopback.\r\n");
	}
}
    3bbc:	00c12083          	lw	ra,12(sp)
    3bc0:	00812403          	lw	s0,8(sp)
    3bc4:	00412483          	lw	s1,4(sp)
    3bc8:	01010113          	addi	sp,sp,16
    3bcc:	00008067          	ret

00003bd0 <MacIpgSet>:

/************************** Function File ***************************/
void MacIpgSet(u32 ipg)
{
    3bd0:	ff010113          	addi	sp,sp,-16
    3bd4:	00112623          	sw	ra,12(sp)
	//Set Mac IPG
	Reg_Out32((XPAR_SYS_AXI_BASEADDR+0x05c), ipg&0x3f);//mac_reg tx_ipg_length Reg
    3bd8:	03f57593          	andi	a1,a0,63
    3bdc:	f8100537          	lui	a0,0xf8100
    3be0:	05c50513          	addi	a0,a0,92 # f810005c <__freertos_irq_stack_top+0xf80dab6c>
    3be4:	3ed010ef          	jal	ra,57d0 <Reg_Out32>
	if(PRINTF_EN == 1) {
		bsp_printf("Info : Set Mac IPG.\r\n");
	}
}
    3be8:	00c12083          	lw	ra,12(sp)
    3bec:	01010113          	addi	sp,sp,16
    3bf0:	00008067          	ret

00003bf4 <MacAddrSet>:

/************************** Function File ***************************/
void MacAddrSet(u32 dst_addr_ins, u32 src_addr_ins)
{
    3bf4:	ff010113          	addi	sp,sp,-16
    3bf8:	00112623          	sw	ra,12(sp)
    3bfc:	00812423          	sw	s0,8(sp)
    3c00:	00912223          	sw	s1,4(sp)
    3c04:	01212023          	sw	s2,0(sp)
    3c08:	00050913          	mv	s2,a0
    3c0c:	00058493          	mv	s1,a1
	u32 Value;
	//dst mac addr set
	Reg_Out32((XPAR_SYS_AXI_BASEADDR+DST_MAC_ADDR_HI), DST_MAC_H);//mac_reg mac_addr[47:32]
    3c10:	000105b7          	lui	a1,0x10
    3c14:	fff58593          	addi	a1,a1,-1 # ffff <tcp_input+0xd7>
    3c18:	f8100437          	lui	s0,0xf8100
    3c1c:	18840513          	addi	a0,s0,392 # f8100188 <__freertos_irq_stack_top+0xf80dac98>
    3c20:	3b1010ef          	jal	ra,57d0 <Reg_Out32>
	Reg_Out32((XPAR_SYS_AXI_BASEADDR+DST_MAC_ADDR_LO), DST_MAC_L);//mac_reg mac_addr[31:0]
    3c24:	fff00593          	li	a1,-1
    3c28:	18440513          	addi	a0,s0,388
    3c2c:	3a5010ef          	jal	ra,57d0 <Reg_Out32>
	//dst mac addr ins set
	Reg_Out32((XPAR_SYS_AXI_BASEADDR+TX_DST_ADDR_INS), dst_addr_ins);//mac_reg tx_dst_addr_ins
    3c30:	00090593          	mv	a1,s2
    3c34:	18040513          	addi	a0,s0,384
    3c38:	399010ef          	jal	ra,57d0 <Reg_Out32>
	//src mac addr set
	Reg_Out32((XPAR_SYS_AXI_BASEADDR+MAC_ADDR_HI), SRC_MAC_H);//mac_addr[47:32]
    3c3c:	000045b7          	lui	a1,0x4
    3c40:	14458593          	addi	a1,a1,324 # 4144 <bsp_printf+0x30>
    3c44:	01040513          	addi	a0,s0,16
    3c48:	389010ef          	jal	ra,57d0 <Reg_Out32>
	Reg_Out32((XPAR_SYS_AXI_BASEADDR+MAC_ADDR_LO), SRC_MAC_L);//mac_addr[31:0]
    3c4c:	332215b7          	lui	a1,0x33221
    3c50:	10058593          	addi	a1,a1,256 # 33221100 <__freertos_irq_stack_top+0x331fbc10>
    3c54:	00c40513          	addi	a0,s0,12
    3c58:	379010ef          	jal	ra,57d0 <Reg_Out32>
	//src mac addr ins set
	Value = Reg_In32(XPAR_SYS_AXI_BASEADDR+COMMAND_CONFIG) & TX_ADDR_INS_MASK;//mac_reg command_config Reg
    3c5c:	00840513          	addi	a0,s0,8
    3c60:	379010ef          	jal	ra,57d8 <Reg_In32>
    3c64:	bff57593          	andi	a1,a0,-1025
	Value |= (src_addr_ins&0x1)<<9;
    3c68:	00949493          	slli	s1,s1,0x9
    3c6c:	2004f493          	andi	s1,s1,512
	Reg_Out32((XPAR_SYS_AXI_BASEADDR+COMMAND_CONFIG), Value);//command_config Reg
    3c70:	00b4e5b3          	or	a1,s1,a1
    3c74:	00840513          	addi	a0,s0,8
    3c78:	359010ef          	jal	ra,57d0 <Reg_Out32>
	if(PRINTF_EN == 1) {
		bsp_printf("Info : Set Mac Address.\r\n");
	}
}
    3c7c:	00c12083          	lw	ra,12(sp)
    3c80:	00812403          	lw	s0,8(sp)
    3c84:	00412483          	lw	s1,4(sp)
    3c88:	00012903          	lw	s2,0(sp)
    3c8c:	01010113          	addi	sp,sp,16
    3c90:	00008067          	ret

00003c94 <Pause_XOn>:

/********************************* Function **********************************/
void Pause_XOn()
{
    3c94:	ff010113          	addi	sp,sp,-16
    3c98:	00112623          	sw	ra,12(sp)
    3c9c:	00812423          	sw	s0,8(sp)
    3ca0:	00912223          	sw	s1,4(sp)
	u32 Value;
	//Set xon_gen 1
	Value = Reg_In32(XPAR_SYS_AXI_BASEADDR+COMMAND_CONFIG) & XON_GEN_MASK;
    3ca4:	f8100437          	lui	s0,0xf8100
    3ca8:	00840513          	addi	a0,s0,8 # f8100008 <__freertos_irq_stack_top+0xf80dab18>
    3cac:	32d010ef          	jal	ra,57d8 <Reg_In32>
    3cb0:	ffb57493          	andi	s1,a0,-5
	Value |= 0x1<<2;
	Reg_Out32((XPAR_SYS_AXI_BASEADDR+COMMAND_CONFIG), Value);//mac_reg command_config Reg
    3cb4:	0044e593          	ori	a1,s1,4
    3cb8:	00840513          	addi	a0,s0,8
    3cbc:	315010ef          	jal	ra,57d0 <Reg_Out32>
	//Set xon_gen 0
	Value &= XON_GEN_MASK;
	Value |= 0x0<<2;
	Reg_Out32((XPAR_SYS_AXI_BASEADDR+COMMAND_CONFIG), Value);//mac_reg command_config Reg
    3cc0:	00048593          	mv	a1,s1
    3cc4:	00840513          	addi	a0,s0,8
    3cc8:	309010ef          	jal	ra,57d0 <Reg_Out32>
}
    3ccc:	00c12083          	lw	ra,12(sp)
    3cd0:	00812403          	lw	s0,8(sp)
    3cd4:	00412483          	lw	s1,4(sp)
    3cd8:	01010113          	addi	sp,sp,16
    3cdc:	00008067          	ret

00003ce0 <MacCntClean>:

/************************** Function File ***************************/
void MacCntClean()
{
    3ce0:	ff010113          	addi	sp,sp,-16
    3ce4:	00112623          	sw	ra,12(sp)
    3ce8:	00812423          	sw	s0,8(sp)
    3cec:	00912223          	sw	s1,4(sp)
	u32 Value;
	//Set cnt_reset 1
	Value = Reg_In32(XPAR_SYS_AXI_BASEADDR+COMMAND_CONFIG) & CNT_RST_MASK;
    3cf0:	f81004b7          	lui	s1,0xf8100
    3cf4:	00848513          	addi	a0,s1,8 # f8100008 <__freertos_irq_stack_top+0xf80dab18>
    3cf8:	2e1010ef          	jal	ra,57d8 <Reg_In32>
    3cfc:	800005b7          	lui	a1,0x80000
    3d00:	fff5c413          	not	s0,a1
    3d04:	00857433          	and	s0,a0,s0
	Value |= 0x80000000;
	Reg_Out32((XPAR_SYS_AXI_BASEADDR+COMMAND_CONFIG), Value);//mac_reg command_config Reg
    3d08:	00b465b3          	or	a1,s0,a1
    3d0c:	00848513          	addi	a0,s1,8
    3d10:	2c1010ef          	jal	ra,57d0 <Reg_Out32>
	bsp_uDelay(1);
    3d14:	f8b00637          	lui	a2,0xf8b00
    3d18:	0bebc5b7          	lui	a1,0xbebc
    3d1c:	20058593          	addi	a1,a1,512 # bebc200 <__freertos_irq_stack_top+0xbe96d10>
    3d20:	00100513          	li	a0,1
    3d24:	9e1ff0ef          	jal	ra,3704 <clint_uDelay>
	//Set cnt_reset 0
	Value &= CNT_RST_MASK;
	Value |= 0x0;
	Reg_Out32((XPAR_SYS_AXI_BASEADDR+COMMAND_CONFIG), Value);//mac_reg command_config Reg
    3d28:	00040593          	mv	a1,s0
    3d2c:	00848513          	addi	a0,s1,8
    3d30:	2a1010ef          	jal	ra,57d0 <Reg_Out32>
	if(PRINTF_EN == 1) {
		bsp_printf("Info : Mac Reset Statistics Counters.\r\n");
	}
}
    3d34:	00c12083          	lw	ra,12(sp)
    3d38:	00812403          	lw	s0,8(sp)
    3d3c:	00412483          	lw	s1,4(sp)
    3d40:	01010113          	addi	sp,sp,16
    3d44:	00008067          	ret

00003d48 <CntMonitor>:

/************************** Function File ***************************/
void CntMonitor()
{
    3d48:	ff010113          	addi	sp,sp,-16
    3d4c:	00112623          	sw	ra,12(sp)
    3d50:	00812423          	sw	s0,8(sp)
    3d54:	00912223          	sw	s1,4(sp)
	bsp_printf("-------------------- \r\n");
    3d58:	0001d4b7          	lui	s1,0x1d
    3d5c:	c6c48513          	addi	a0,s1,-916 # 1cc6c <packet_anomaly_detector_means+0x1dc>
    3d60:	be1ff0ef          	jal	ra,3940 <bsp_printf>
	bsp_printf("aFramesTransmittedOK %d\r\n", Reg_In32(XPAR_SYS_AXI_BASEADDR+A_FRAME_TRANSMITTED_OK));
    3d64:	f8100437          	lui	s0,0xf8100
    3d68:	06840513          	addi	a0,s0,104 # f8100068 <__freertos_irq_stack_top+0xf80dab78>
    3d6c:	26d010ef          	jal	ra,57d8 <Reg_In32>
    3d70:	00050593          	mv	a1,a0
    3d74:	0001d537          	lui	a0,0x1d
    3d78:	c8450513          	addi	a0,a0,-892 # 1cc84 <packet_anomaly_detector_means+0x1f4>
    3d7c:	bc5ff0ef          	jal	ra,3940 <bsp_printf>
	bsp_printf("aFramesReceivedOK %d\r\n", Reg_In32(XPAR_SYS_AXI_BASEADDR+A_FRAME_RECEIVED_OK));
    3d80:	06c40513          	addi	a0,s0,108
    3d84:	255010ef          	jal	ra,57d8 <Reg_In32>
    3d88:	00050593          	mv	a1,a0
    3d8c:	0001d537          	lui	a0,0x1d
    3d90:	ca050513          	addi	a0,a0,-864 # 1cca0 <packet_anomaly_detector_means+0x210>
    3d94:	badff0ef          	jal	ra,3940 <bsp_printf>
	bsp_printf("ifInErrors %d\r\n", Reg_In32(XPAR_SYS_AXI_BASEADDR+IF_INDICATES_ERROR));
    3d98:	08840513          	addi	a0,s0,136
    3d9c:	23d010ef          	jal	ra,57d8 <Reg_In32>
    3da0:	00050593          	mv	a1,a0
    3da4:	0001d537          	lui	a0,0x1d
    3da8:	cb850513          	addi	a0,a0,-840 # 1ccb8 <packet_anomaly_detector_means+0x228>
    3dac:	b95ff0ef          	jal	ra,3940 <bsp_printf>
	bsp_printf("-------------------- \r\n");
    3db0:	c6c48513          	addi	a0,s1,-916
    3db4:	b8dff0ef          	jal	ra,3940 <bsp_printf>
}
    3db8:	00c12083          	lw	ra,12(sp)
    3dbc:	00812403          	lw	s0,8(sp)
    3dc0:	00412483          	lw	s1,4(sp)
    3dc4:	01010113          	addi	sp,sp,16
    3dc8:	00008067          	ret

00003dcc <MacRst>:
/************************** Function File ***************************/
void MacRst(u8 MacRst, u8 PhyRst)
{
    3dcc:	fe010113          	addi	sp,sp,-32
    3dd0:	00112e23          	sw	ra,28(sp)
    3dd4:	00812c23          	sw	s0,24(sp)
    3dd8:	00912a23          	sw	s1,20(sp)
	struct cmn_reset 	rst;

	memset(&rst,0,sizeof(rst));
    3ddc:	00012623          	sw	zero,12(sp)

	if(MacRst)	rst.mac_rst=1;
    3de0:	00050863          	beqz	a0,3df0 <MacRst+0x24>
    3de4:	00000793          	li	a5,0
    3de8:	0017e793          	ori	a5,a5,1
    3dec:	00f12623          	sw	a5,12(sp)
	if(PhyRst)	rst.phy_rst=1;
    3df0:	00058863          	beqz	a1,3e00 <MacRst+0x34>
    3df4:	00c12783          	lw	a5,12(sp)
    3df8:	0027e793          	ori	a5,a5,2
    3dfc:	00f12623          	sw	a5,12(sp)

	control_reset(&rst);
    3e00:	00c10513          	addi	a0,sp,12
    3e04:	c75ff0ef          	jal	ra,3a78 <control_reset>
	bsp_uDelay(100*1000);
    3e08:	f8b00637          	lui	a2,0xf8b00
    3e0c:	0bebc4b7          	lui	s1,0xbebc
    3e10:	20048593          	addi	a1,s1,512 # bebc200 <__freertos_irq_stack_top+0xbe96d10>
    3e14:	00018437          	lui	s0,0x18
    3e18:	6a040513          	addi	a0,s0,1696 # 186a0 <ip4addr_aton+0x124>
    3e1c:	8e9ff0ef          	jal	ra,3704 <clint_uDelay>
	rst.mac_rst=0;
    3e20:	00c12783          	lw	a5,12(sp)
	rst.phy_rst=0;
    3e24:	ffc7f793          	andi	a5,a5,-4
    3e28:	00f12623          	sw	a5,12(sp)

	control_reset(&rst);
    3e2c:	00c10513          	addi	a0,sp,12
    3e30:	c49ff0ef          	jal	ra,3a78 <control_reset>
	bsp_uDelay(100*1000);
    3e34:	f8b00637          	lui	a2,0xf8b00
    3e38:	20048593          	addi	a1,s1,512
    3e3c:	6a040513          	addi	a0,s0,1696
    3e40:	8c5ff0ef          	jal	ra,3704 <clint_uDelay>
}
    3e44:	01c12083          	lw	ra,28(sp)
    3e48:	01812403          	lw	s0,24(sp)
    3e4c:	01412483          	lw	s1,20(sp)
    3e50:	02010113          	addi	sp,sp,32
    3e54:	00008067          	ret

00003e58 <MacNormalInit>:


/************************** Function File ***************************/
void MacNormalInit(u32 speed)
{
    3e58:	ff010113          	addi	sp,sp,-16
    3e5c:	00112623          	sw	ra,12(sp)
    3e60:	00812423          	sw	s0,8(sp)
    3e64:	00050413          	mv	s0,a0
	MacRst(1,0);
    3e68:	00000593          	li	a1,0
    3e6c:	00100513          	li	a0,1
    3e70:	f5dff0ef          	jal	ra,3dcc <MacRst>
	MacSpeedSet(speed);
    3e74:	00040513          	mv	a0,s0
    3e78:	ca5ff0ef          	jal	ra,3b1c <MacSpeedSet>
}
    3e7c:	00c12083          	lw	ra,12(sp)
    3e80:	00812403          	lw	s0,8(sp)
    3e84:	01010113          	addi	sp,sp,16
    3e88:	00008067          	ret

00003e8c <uart_writeAvailability>:
        return *((volatile u32*) address);
    3e8c:	00452503          	lw	a0,4(a0)
        return (read_u32(reg + UART_STATUS) >> 16) & 0xFF;
    3e90:	01055513          	srli	a0,a0,0x10
    }
    3e94:	0ff57513          	andi	a0,a0,255
    3e98:	00008067          	ret

00003e9c <uart_write>:
    static void uart_write(u32 reg, char data){
    3e9c:	ff010113          	addi	sp,sp,-16
    3ea0:	00112623          	sw	ra,12(sp)
    3ea4:	00812423          	sw	s0,8(sp)
    3ea8:	00912223          	sw	s1,4(sp)
    3eac:	00050413          	mv	s0,a0
    3eb0:	00058493          	mv	s1,a1
        while(uart_writeAvailability(reg) == 0);
    3eb4:	00040513          	mv	a0,s0
    3eb8:	fd5ff0ef          	jal	ra,3e8c <uart_writeAvailability>
    3ebc:	fe050ce3          	beqz	a0,3eb4 <uart_write+0x18>
        *((volatile u32*) address) = data;
    3ec0:	00942023          	sw	s1,0(s0)
    }
    3ec4:	00c12083          	lw	ra,12(sp)
    3ec8:	00812403          	lw	s0,8(sp)
    3ecc:	00412483          	lw	s1,4(sp)
    3ed0:	01010113          	addi	sp,sp,16
    3ed4:	00008067          	ret

00003ed8 <clint_uDelay>:
        u32 mTimePerUsec = hz/1000000;
    3ed8:	000f47b7          	lui	a5,0xf4
    3edc:	24078793          	addi	a5,a5,576 # f4240 <__freertos_irq_stack_top+0xced50>
    3ee0:	02f5d5b3          	divu	a1,a1,a5
    readReg_u32 (clint_getTimeLow , CLINT_TIME_ADDR)
    3ee4:	0000c7b7          	lui	a5,0xc
    3ee8:	ff878793          	addi	a5,a5,-8 # bff8 <netif_add>
    3eec:	00f60633          	add	a2,a2,a5
        return *((volatile u32*) address);
    3ef0:	00062783          	lw	a5,0(a2) # f8b00000 <__freertos_irq_stack_top+0xf8adab10>
        u32 limit = clint_getTimeLow(reg) + usec*mTimePerUsec;
    3ef4:	02a58533          	mul	a0,a1,a0
    3ef8:	00f50533          	add	a0,a0,a5
    3efc:	00062783          	lw	a5,0(a2)
        while((int32_t)(limit-(clint_getTimeLow(reg))) >= 0);
    3f00:	40f507b3          	sub	a5,a0,a5
    3f04:	fe07dce3          	bgez	a5,3efc <clint_uDelay+0x24>
    }
    3f08:	00008067          	ret

00003f0c <bsp_printHex>:
    {
    3f0c:	ff010113          	addi	sp,sp,-16
    3f10:	00112623          	sw	ra,12(sp)
    3f14:	00812423          	sw	s0,8(sp)
    3f18:	00912223          	sw	s1,4(sp)
    3f1c:	00050493          	mv	s1,a0
        for (int i = (4*digits)-4; i >= 0; i -= 4) {
    3f20:	01c00413          	li	s0,28
    3f24:	0280006f          	j	3f4c <bsp_printHex+0x40>
            uart_write(BSP_UART_TERMINAL, "0123456789ABCDEF"[(val >> i) % 16]);
    3f28:	0084d7b3          	srl	a5,s1,s0
    3f2c:	00f7f713          	andi	a4,a5,15
    3f30:	0001d7b7          	lui	a5,0x1d
    3f34:	aa878793          	addi	a5,a5,-1368 # 1caa8 <packet_anomaly_detector_means+0x18>
    3f38:	00e787b3          	add	a5,a5,a4
    3f3c:	0007c583          	lbu	a1,0(a5)
    3f40:	f8010537          	lui	a0,0xf8010
    3f44:	f59ff0ef          	jal	ra,3e9c <uart_write>
        for (int i = (4*digits)-4; i >= 0; i -= 4) {
    3f48:	ffc40413          	addi	s0,s0,-4
    3f4c:	fc045ee3          	bgez	s0,3f28 <bsp_printHex+0x1c>
    }
    3f50:	00c12083          	lw	ra,12(sp)
    3f54:	00812403          	lw	s0,8(sp)
    3f58:	00412483          	lw	s1,4(sp)
    3f5c:	01010113          	addi	sp,sp,16
    3f60:	00008067          	ret

00003f64 <bsp_printHex_lower>:
        {
    3f64:	ff010113          	addi	sp,sp,-16
    3f68:	00112623          	sw	ra,12(sp)
    3f6c:	00812423          	sw	s0,8(sp)
    3f70:	00912223          	sw	s1,4(sp)
    3f74:	00050493          	mv	s1,a0
            for (int i = (4*digits)-4; i >= 0; i -= 4) {
    3f78:	01c00413          	li	s0,28
    3f7c:	0280006f          	j	3fa4 <bsp_printHex_lower+0x40>
                uart_write(BSP_UART_TERMINAL, "0123456789abcdef"[(val >> i) % 16]);
    3f80:	0084d7b3          	srl	a5,s1,s0
    3f84:	00f7f713          	andi	a4,a5,15
    3f88:	0001d7b7          	lui	a5,0x1d
    3f8c:	abc78793          	addi	a5,a5,-1348 # 1cabc <packet_anomaly_detector_means+0x2c>
    3f90:	00e787b3          	add	a5,a5,a4
    3f94:	0007c583          	lbu	a1,0(a5)
    3f98:	f8010537          	lui	a0,0xf8010
    3f9c:	f01ff0ef          	jal	ra,3e9c <uart_write>
            for (int i = (4*digits)-4; i >= 0; i -= 4) {
    3fa0:	ffc40413          	addi	s0,s0,-4
    3fa4:	fc045ee3          	bgez	s0,3f80 <bsp_printHex_lower+0x1c>
        }
    3fa8:	00c12083          	lw	ra,12(sp)
    3fac:	00812403          	lw	s0,8(sp)
    3fb0:	00412483          	lw	s1,4(sp)
    3fb4:	01010113          	addi	sp,sp,16
    3fb8:	00008067          	ret

00003fbc <bsp_printf_c>:
    {
    3fbc:	ff010113          	addi	sp,sp,-16
    3fc0:	00112623          	sw	ra,12(sp)
        bsp_putChar(c);
    3fc4:	0ff57593          	andi	a1,a0,255
    3fc8:	f8010537          	lui	a0,0xf8010
    3fcc:	ed1ff0ef          	jal	ra,3e9c <uart_write>
    }
    3fd0:	00c12083          	lw	ra,12(sp)
    3fd4:	01010113          	addi	sp,sp,16
    3fd8:	00008067          	ret

00003fdc <bsp_printf_s>:
    {
    3fdc:	ff010113          	addi	sp,sp,-16
    3fe0:	00112623          	sw	ra,12(sp)
    3fe4:	00812423          	sw	s0,8(sp)
    3fe8:	00050413          	mv	s0,a0
        while (*p)
    3fec:	00044583          	lbu	a1,0(s0)
    3ff0:	00058a63          	beqz	a1,4004 <bsp_printf_s+0x28>
            bsp_putChar(*(p++));
    3ff4:	00140413          	addi	s0,s0,1
    3ff8:	f8010537          	lui	a0,0xf8010
    3ffc:	ea1ff0ef          	jal	ra,3e9c <uart_write>
    4000:	fedff06f          	j	3fec <bsp_printf_s+0x10>
    }
    4004:	00c12083          	lw	ra,12(sp)
    4008:	00812403          	lw	s0,8(sp)
    400c:	01010113          	addi	sp,sp,16
    4010:	00008067          	ret

00004014 <bsp_printf_d>:
    {
    4014:	fd010113          	addi	sp,sp,-48
    4018:	02112623          	sw	ra,44(sp)
    401c:	02812423          	sw	s0,40(sp)
    4020:	02912223          	sw	s1,36(sp)
    4024:	00050493          	mv	s1,a0
        if (val < 0) {
    4028:	00054663          	bltz	a0,4034 <bsp_printf_d+0x20>
    {
    402c:	00010413          	mv	s0,sp
    4030:	02c0006f          	j	405c <bsp_printf_d+0x48>
            bsp_printf_c('-');
    4034:	02d00513          	li	a0,45
    4038:	f85ff0ef          	jal	ra,3fbc <bsp_printf_c>
            val = -val;
    403c:	409004b3          	neg	s1,s1
    4040:	fedff06f          	j	402c <bsp_printf_d+0x18>
            *(p++) = '0' + val % 10;
    4044:	00a00713          	li	a4,10
    4048:	02e4e7b3          	rem	a5,s1,a4
    404c:	03078793          	addi	a5,a5,48
    4050:	00f40023          	sb	a5,0(s0)
            val = val / 10;
    4054:	02e4c4b3          	div	s1,s1,a4
            *(p++) = '0' + val % 10;
    4058:	00140413          	addi	s0,s0,1
        while (val || p == buffer) {
    405c:	fe0494e3          	bnez	s1,4044 <bsp_printf_d+0x30>
    4060:	00010793          	mv	a5,sp
    4064:	fef400e3          	beq	s0,a5,4044 <bsp_printf_d+0x30>
    4068:	0100006f          	j	4078 <bsp_printf_d+0x64>
            bsp_printf_c(*(--p));
    406c:	fff40413          	addi	s0,s0,-1
    4070:	00044503          	lbu	a0,0(s0)
    4074:	f49ff0ef          	jal	ra,3fbc <bsp_printf_c>
        while (p != buffer)
    4078:	00010793          	mv	a5,sp
    407c:	fef418e3          	bne	s0,a5,406c <bsp_printf_d+0x58>
    }
    4080:	02c12083          	lw	ra,44(sp)
    4084:	02812403          	lw	s0,40(sp)
    4088:	02412483          	lw	s1,36(sp)
    408c:	03010113          	addi	sp,sp,48
    4090:	00008067          	ret

00004094 <bsp_printf_x>:
    {
    4094:	ff010113          	addi	sp,sp,-16
    4098:	00112623          	sw	ra,12(sp)
        for(i=0;i<8;i++)
    409c:	00000713          	li	a4,0
    40a0:	00700793          	li	a5,7
    40a4:	02e7c063          	blt	a5,a4,40c4 <bsp_printf_x+0x30>
            if((val & (0xFFFFFFF0 <<(4*i))) == 0)
    40a8:	00271693          	slli	a3,a4,0x2
    40ac:	ff000793          	li	a5,-16
    40b0:	00d797b3          	sll	a5,a5,a3
    40b4:	00f577b3          	and	a5,a0,a5
    40b8:	00078663          	beqz	a5,40c4 <bsp_printf_x+0x30>
        for(i=0;i<8;i++)
    40bc:	00170713          	addi	a4,a4,1
    40c0:	fe1ff06f          	j	40a0 <bsp_printf_x+0xc>
        bsp_printHex_lower(val);
    40c4:	ea1ff0ef          	jal	ra,3f64 <bsp_printHex_lower>
    }
    40c8:	00c12083          	lw	ra,12(sp)
    40cc:	01010113          	addi	sp,sp,16
    40d0:	00008067          	ret

000040d4 <bsp_printf_X>:
        {
    40d4:	ff010113          	addi	sp,sp,-16
    40d8:	00112623          	sw	ra,12(sp)
            for(i=0;i<8;i++)
    40dc:	00000713          	li	a4,0
    40e0:	00700793          	li	a5,7
    40e4:	02e7c063          	blt	a5,a4,4104 <bsp_printf_X+0x30>
                if((val & (0xFFFFFFF0 <<(4*i))) == 0)
    40e8:	00271693          	slli	a3,a4,0x2
    40ec:	ff000793          	li	a5,-16
    40f0:	00d797b3          	sll	a5,a5,a3
    40f4:	00f577b3          	and	a5,a0,a5
    40f8:	00078663          	beqz	a5,4104 <bsp_printf_X+0x30>
            for(i=0;i<8;i++)
    40fc:	00170713          	addi	a4,a4,1
    4100:	fe1ff06f          	j	40e0 <bsp_printf_X+0xc>
            bsp_printHex(val);
    4104:	e09ff0ef          	jal	ra,3f0c <bsp_printHex>
        }
    4108:	00c12083          	lw	ra,12(sp)
    410c:	01010113          	addi	sp,sp,16
    4110:	00008067          	ret

00004114 <bsp_printf>:
    {
    4114:	fc010113          	addi	sp,sp,-64
    4118:	00112e23          	sw	ra,28(sp)
    411c:	00812c23          	sw	s0,24(sp)
    4120:	00912a23          	sw	s1,20(sp)
    4124:	00050493          	mv	s1,a0
    4128:	02b12223          	sw	a1,36(sp)
    412c:	02c12423          	sw	a2,40(sp)
    4130:	02d12623          	sw	a3,44(sp)
    4134:	02e12823          	sw	a4,48(sp)
    4138:	02f12a23          	sw	a5,52(sp)
    413c:	03012c23          	sw	a6,56(sp)
    4140:	03112e23          	sw	a7,60(sp)
        va_start(ap, format);
    4144:	02410793          	addi	a5,sp,36
    4148:	00f12623          	sw	a5,12(sp)
        for (i = 0; format[i]; i++)
    414c:	00000413          	li	s0,0
    4150:	01c0006f          	j	416c <bsp_printf+0x58>
                        bsp_printf_c(va_arg(ap,int));
    4154:	00c12783          	lw	a5,12(sp)
    4158:	00478713          	addi	a4,a5,4
    415c:	00e12623          	sw	a4,12(sp)
    4160:	0007a503          	lw	a0,0(a5)
    4164:	e59ff0ef          	jal	ra,3fbc <bsp_printf_c>
        for (i = 0; format[i]; i++)
    4168:	00140413          	addi	s0,s0,1
    416c:	008487b3          	add	a5,s1,s0
    4170:	0007c503          	lbu	a0,0(a5)
    4174:	0c050263          	beqz	a0,4238 <bsp_printf+0x124>
            if (format[i] == '%') {
    4178:	02500793          	li	a5,37
    417c:	06f50663          	beq	a0,a5,41e8 <bsp_printf+0xd4>
                bsp_printf_c(format[i]);
    4180:	e3dff0ef          	jal	ra,3fbc <bsp_printf_c>
    4184:	fe5ff06f          	j	4168 <bsp_printf+0x54>
                        bsp_printf_s(va_arg(ap,char*));
    4188:	00c12783          	lw	a5,12(sp)
    418c:	00478713          	addi	a4,a5,4
    4190:	00e12623          	sw	a4,12(sp)
    4194:	0007a503          	lw	a0,0(a5)
    4198:	e45ff0ef          	jal	ra,3fdc <bsp_printf_s>
                        break;
    419c:	fcdff06f          	j	4168 <bsp_printf+0x54>
                        bsp_printf_d(va_arg(ap,int));
    41a0:	00c12783          	lw	a5,12(sp)
    41a4:	00478713          	addi	a4,a5,4
    41a8:	00e12623          	sw	a4,12(sp)
    41ac:	0007a503          	lw	a0,0(a5)
    41b0:	e65ff0ef          	jal	ra,4014 <bsp_printf_d>
                        break;
    41b4:	fb5ff06f          	j	4168 <bsp_printf+0x54>
                        bsp_printf_X(va_arg(ap,int));
    41b8:	00c12783          	lw	a5,12(sp)
    41bc:	00478713          	addi	a4,a5,4
    41c0:	00e12623          	sw	a4,12(sp)
    41c4:	0007a503          	lw	a0,0(a5)
    41c8:	f0dff0ef          	jal	ra,40d4 <bsp_printf_X>
                        break;
    41cc:	f9dff06f          	j	4168 <bsp_printf+0x54>
                        bsp_printf_x(va_arg(ap,int));
    41d0:	00c12783          	lw	a5,12(sp)
    41d4:	00478713          	addi	a4,a5,4
    41d8:	00e12623          	sw	a4,12(sp)
    41dc:	0007a503          	lw	a0,0(a5)
    41e0:	eb5ff0ef          	jal	ra,4094 <bsp_printf_x>
                        break;
    41e4:	f85ff06f          	j	4168 <bsp_printf+0x54>
                while (format[++i]) {
    41e8:	00140413          	addi	s0,s0,1
    41ec:	008487b3          	add	a5,s1,s0
    41f0:	0007c783          	lbu	a5,0(a5)
    41f4:	f6078ae3          	beqz	a5,4168 <bsp_printf+0x54>
                    if (format[i] == 'c') {
    41f8:	06300713          	li	a4,99
    41fc:	f4e78ce3          	beq	a5,a4,4154 <bsp_printf+0x40>
                    else if (format[i] == 's') {
    4200:	07300713          	li	a4,115
    4204:	f8e782e3          	beq	a5,a4,4188 <bsp_printf+0x74>
                    else if (format[i] == 'd') {
    4208:	06400713          	li	a4,100
    420c:	f8e78ae3          	beq	a5,a4,41a0 <bsp_printf+0x8c>
                    else if (format[i] == 'X') {
    4210:	05800713          	li	a4,88
    4214:	fae782e3          	beq	a5,a4,41b8 <bsp_printf+0xa4>
                    else if (format[i] == 'x') {
    4218:	07800713          	li	a4,120
    421c:	fae78ae3          	beq	a5,a4,41d0 <bsp_printf+0xbc>
                    else if (format[i] == 'f') {
    4220:	06600713          	li	a4,102
    4224:	fce792e3          	bne	a5,a4,41e8 <bsp_printf+0xd4>
                        bsp_printf_s("<Floating point printing not enable. Please Enable it at bsp.h first...>");
    4228:	0001d537          	lui	a0,0x1d
    422c:	ad050513          	addi	a0,a0,-1328 # 1cad0 <packet_anomaly_detector_means+0x40>
    4230:	dadff0ef          	jal	ra,3fdc <bsp_printf_s>
                        break;
    4234:	f35ff06f          	j	4168 <bsp_printf+0x54>
    }
    4238:	01c12083          	lw	ra,28(sp)
    423c:	01812403          	lw	s0,24(sp)
    4240:	01412483          	lw	s1,20(sp)
    4244:	04010113          	addi	sp,sp,64
    4248:	00008067          	ret

0000424c <Phy_Rd>:
#include "dmasg.h"
#include "mac.h"
#include "compatibility.h"

u32 Phy_Rd(u32 RegAddr)
{
    424c:	ff010113          	addi	sp,sp,-16
    4250:	00112623          	sw	ra,12(sp)
    4254:	00812423          	sw	s0,8(sp)
    u32 Value;
    Reg_Out32((XPAR_SYS_AXI_BASEADDR+0x108), ((PHY_ADDR&0x1f)<<8)|(RegAddr&0x1f));
    4258:	01f57593          	andi	a1,a0,31
    425c:	f8100437          	lui	s0,0xf8100
    4260:	10840513          	addi	a0,s0,264 # f8100108 <__freertos_irq_stack_top+0xf80dac18>
    4264:	56c010ef          	jal	ra,57d0 <Reg_Out32>
    Reg_Out32((XPAR_SYS_AXI_BASEADDR+0x104), 0x1);
    4268:	00100593          	li	a1,1
    426c:	10440513          	addi	a0,s0,260
    4270:	560010ef          	jal	ra,57d0 <Reg_Out32>
    bsp_uDelay(1000);
    4274:	f8b00637          	lui	a2,0xf8b00
    4278:	0bebc5b7          	lui	a1,0xbebc
    427c:	20058593          	addi	a1,a1,512 # bebc200 <__freertos_irq_stack_top+0xbe96d10>
    4280:	3e800513          	li	a0,1000
    4284:	c55ff0ef          	jal	ra,3ed8 <clint_uDelay>
    Value = Reg_In32(XPAR_SYS_AXI_BASEADDR+0x110);
    4288:	11040513          	addi	a0,s0,272
    428c:	54c010ef          	jal	ra,57d8 <Reg_In32>

    return Value;
}
    4290:	00c12083          	lw	ra,12(sp)
    4294:	00812403          	lw	s0,8(sp)
    4298:	01010113          	addi	sp,sp,16
    429c:	00008067          	ret

000042a0 <Phy_Wr>:
void Phy_Wr(u32 RegAddr,u32 Data)
{
    42a0:	ff010113          	addi	sp,sp,-16
    42a4:	00112623          	sw	ra,12(sp)
    42a8:	00812423          	sw	s0,8(sp)
    42ac:	00912223          	sw	s1,4(sp)
    42b0:	00058493          	mv	s1,a1
    Reg_Out32((XPAR_SYS_AXI_BASEADDR+0x108), ((PHY_ADDR&0x1f)<<8)|(RegAddr&0x1f));
    42b4:	01f57593          	andi	a1,a0,31
    42b8:	f8100437          	lui	s0,0xf8100
    42bc:	10840513          	addi	a0,s0,264 # f8100108 <__freertos_irq_stack_top+0xf80dac18>
    42c0:	510010ef          	jal	ra,57d0 <Reg_Out32>
    Reg_Out32((XPAR_SYS_AXI_BASEADDR+0x10c), Data);
    42c4:	00048593          	mv	a1,s1
    42c8:	10c40513          	addi	a0,s0,268
    42cc:	504010ef          	jal	ra,57d0 <Reg_Out32>
    Reg_Out32((XPAR_SYS_AXI_BASEADDR+0x104), 0x2);
    42d0:	00200593          	li	a1,2
    42d4:	10440513          	addi	a0,s0,260
    42d8:	4f8010ef          	jal	ra,57d0 <Reg_Out32>
}
    42dc:	00c12083          	lw	ra,12(sp)
    42e0:	00812403          	lw	s0,8(sp)
    42e4:	00412483          	lw	s1,4(sp)
    42e8:	01010113          	addi	sp,sp,16
    42ec:	00008067          	ret

000042f0 <rtl8211_drv_rddata>:

int rtl8211_drv_rddata(int addr)
{
    42f0:	ff010113          	addi	sp,sp,-16
    42f4:	00112623          	sw	ra,12(sp)
	 return Phy_Rd(addr);
    42f8:	f55ff0ef          	jal	ra,424c <Phy_Rd>
}
    42fc:	00c12083          	lw	ra,12(sp)
    4300:	01010113          	addi	sp,sp,16
    4304:	00008067          	ret

00004308 <rtl8211_drv_wrdata>:

void rtl8211_drv_wrdata(int addr ,int data)
{
    4308:	ff010113          	addi	sp,sp,-16
    430c:	00112623          	sw	ra,12(sp)
	 Phy_Wr(addr,data);
    4310:	f91ff0ef          	jal	ra,42a0 <Phy_Wr>
	 bsp_uDelay(100);
    4314:	f8b00637          	lui	a2,0xf8b00
    4318:	0bebc5b7          	lui	a1,0xbebc
    431c:	20058593          	addi	a1,a1,512 # bebc200 <__freertos_irq_stack_top+0xbe96d10>
    4320:	06400513          	li	a0,100
    4324:	bb5ff0ef          	jal	ra,3ed8 <clint_uDelay>
}
    4328:	00c12083          	lw	ra,12(sp)
    432c:	01010113          	addi	sp,sp,16
    4330:	00008067          	ret

00004334 <rtl8211_drv_setpage>:

void rtl8211_drv_setpage(int page)
{
    4334:	ff010113          	addi	sp,sp,-16
    4338:	00112623          	sw	ra,12(sp)
	 Phy_Wr(31,page & 0xFFFF);
    433c:	01051593          	slli	a1,a0,0x10
    4340:	0105d593          	srli	a1,a1,0x10
    4344:	01f00513          	li	a0,31
    4348:	f59ff0ef          	jal	ra,42a0 <Phy_Wr>
	 bsp_uDelay(100);
    434c:	f8b00637          	lui	a2,0xf8b00
    4350:	0bebc5b7          	lui	a1,0xbebc
    4354:	20058593          	addi	a1,a1,512 # bebc200 <__freertos_irq_stack_top+0xbe96d10>
    4358:	06400513          	li	a0,100
    435c:	b7dff0ef          	jal	ra,3ed8 <clint_uDelay>
}
    4360:	00c12083          	lw	ra,12(sp)
    4364:	01010113          	addi	sp,sp,16
    4368:	00008067          	ret

0000436c <rtl8211_drv_linkup>:

int rtl8211_drv_linkup(void)
{
    436c:	ff010113          	addi	sp,sp,-16
    4370:	00112623          	sw	ra,12(sp)
    4374:	00812423          	sw	s0,8(sp)
	int phy_reg=0;
	int speed=Speed_1000Mhz;

	 while(1)
	{
		phy_reg=rtl8211_drv_rddata(26);
    4378:	01a00513          	li	a0,26
    437c:	f75ff0ef          	jal	ra,42f0 <rtl8211_drv_rddata>

		if(phy_reg & 0x04)
    4380:	00457793          	andi	a5,a0,4
    4384:	02079063          	bnez	a5,43a4 <rtl8211_drv_linkup+0x38>
		{
			bsp_printf("Linked Up");
			break;
		}

		bsp_uDelay(10000);
    4388:	f8b00637          	lui	a2,0xf8b00
    438c:	0bebc5b7          	lui	a1,0xbebc
    4390:	20058593          	addi	a1,a1,512 # bebc200 <__freertos_irq_stack_top+0xbe96d10>
    4394:	00002537          	lui	a0,0x2
    4398:	71050513          	addi	a0,a0,1808 # 2710 <clint_getTime+0x1c>
    439c:	b3dff0ef          	jal	ra,3ed8 <clint_uDelay>
		phy_reg=rtl8211_drv_rddata(26);
    43a0:	fd9ff06f          	j	4378 <rtl8211_drv_linkup+0xc>
    43a4:	00050413          	mv	s0,a0
			bsp_printf("Linked Up");
    43a8:	0001d537          	lui	a0,0x1d
    43ac:	cc850513          	addi	a0,a0,-824 # 1ccc8 <packet_anomaly_detector_means+0x238>
    43b0:	d65ff0ef          	jal	ra,4114 <bsp_printf>
	}

	if((phy_reg & 0x30) == 0x20)
    43b4:	03047793          	andi	a5,s0,48
    43b8:	02000713          	li	a4,32
    43bc:	02e78663          	beq	a5,a4,43e8 <rtl8211_drv_linkup+0x7c>
			bsp_printf("Link Partner Full duplex 1000 Mbps\n\r");
		else
			bsp_printf("Link Partner half duplex 1000 Mbps\n\r");
		speed = Speed_1000Mhz;
	}
	else if((phy_reg & 0x30) == 0x10)
    43c0:	01000713          	li	a4,16
    43c4:	06e78063          	beq	a5,a4,4424 <rtl8211_drv_linkup+0xb8>
			bsp_printf("Link Partner Full duplex 100 Mbps\n\r");
		else
			bsp_printf("Link Partner half duplex 100 Mbps\n\r");
		speed = Speed_100Mhz;
	}
	else if((phy_reg & 0x30) == 0)
    43c8:	0a079063          	bnez	a5,4468 <rtl8211_drv_linkup+0xfc>
	{
		if(phy_reg & 0x08)
    43cc:	00847413          	andi	s0,s0,8
    43d0:	08040263          	beqz	s0,4454 <rtl8211_drv_linkup+0xe8>
			bsp_printf("Link Partner Full duplex 10 Mbps\n\r");
    43d4:	0001d537          	lui	a0,0x1d
    43d8:	d6c50513          	addi	a0,a0,-660 # 1cd6c <packet_anomaly_detector_means+0x2dc>
    43dc:	d39ff0ef          	jal	ra,4114 <bsp_printf>
		else
			bsp_printf("Link Partner half duplex 10 Mbps\n\r");
		speed = Speed_10Mhz;
    43e0:	00100513          	li	a0,1
    43e4:	01c0006f          	j	4400 <rtl8211_drv_linkup+0x94>
		if(phy_reg & 0x08)
    43e8:	00847413          	andi	s0,s0,8
    43ec:	02040263          	beqz	s0,4410 <rtl8211_drv_linkup+0xa4>
			bsp_printf("Link Partner Full duplex 1000 Mbps\n\r");
    43f0:	0001d537          	lui	a0,0x1d
    43f4:	cd450513          	addi	a0,a0,-812 # 1ccd4 <packet_anomaly_detector_means+0x244>
    43f8:	d1dff0ef          	jal	ra,4114 <bsp_printf>
		speed = Speed_1000Mhz;
    43fc:	00400513          	li	a0,4
	}

	return speed;
}
    4400:	00c12083          	lw	ra,12(sp)
    4404:	00812403          	lw	s0,8(sp)
    4408:	01010113          	addi	sp,sp,16
    440c:	00008067          	ret
			bsp_printf("Link Partner half duplex 1000 Mbps\n\r");
    4410:	0001d537          	lui	a0,0x1d
    4414:	cfc50513          	addi	a0,a0,-772 # 1ccfc <packet_anomaly_detector_means+0x26c>
    4418:	cfdff0ef          	jal	ra,4114 <bsp_printf>
		speed = Speed_1000Mhz;
    441c:	00400513          	li	a0,4
    4420:	fe1ff06f          	j	4400 <rtl8211_drv_linkup+0x94>
		if(phy_reg & 0x08)
    4424:	00847413          	andi	s0,s0,8
    4428:	00040c63          	beqz	s0,4440 <rtl8211_drv_linkup+0xd4>
			bsp_printf("Link Partner Full duplex 100 Mbps\n\r");
    442c:	0001d537          	lui	a0,0x1d
    4430:	d2450513          	addi	a0,a0,-732 # 1cd24 <packet_anomaly_detector_means+0x294>
    4434:	ce1ff0ef          	jal	ra,4114 <bsp_printf>
		speed = Speed_100Mhz;
    4438:	00200513          	li	a0,2
    443c:	fc5ff06f          	j	4400 <rtl8211_drv_linkup+0x94>
			bsp_printf("Link Partner half duplex 100 Mbps\n\r");
    4440:	0001d537          	lui	a0,0x1d
    4444:	d4850513          	addi	a0,a0,-696 # 1cd48 <packet_anomaly_detector_means+0x2b8>
    4448:	ccdff0ef          	jal	ra,4114 <bsp_printf>
		speed = Speed_100Mhz;
    444c:	00200513          	li	a0,2
    4450:	fb1ff06f          	j	4400 <rtl8211_drv_linkup+0x94>
			bsp_printf("Link Partner half duplex 10 Mbps\n\r");
    4454:	0001d537          	lui	a0,0x1d
    4458:	d9050513          	addi	a0,a0,-624 # 1cd90 <packet_anomaly_detector_means+0x300>
    445c:	cb9ff0ef          	jal	ra,4114 <bsp_printf>
		speed = Speed_10Mhz;
    4460:	00100513          	li	a0,1
    4464:	f9dff06f          	j	4400 <rtl8211_drv_linkup+0x94>
	int speed=Speed_1000Mhz;
    4468:	00400513          	li	a0,4
	return speed;
    446c:	f95ff06f          	j	4400 <rtl8211_drv_linkup+0x94>

00004470 <rtl8211_drv_init>:

void rtl8211_drv_init(void)
{
    4470:	ff010113          	addi	sp,sp,-16
    4474:	00112623          	sw	ra,12(sp)
    4478:	00812423          	sw	s0,8(sp)
    447c:	00912223          	sw	s1,4(sp)
	rtl8211_drv_setpage(0);
    4480:	00000513          	li	a0,0
    4484:	eb1ff0ef          	jal	ra,4334 <rtl8211_drv_setpage>
	rtl8211_drv_wrdata(0,0x9000);
    4488:	000095b7          	lui	a1,0x9
    448c:	00000513          	li	a0,0
    4490:	e79ff0ef          	jal	ra,4308 <rtl8211_drv_wrdata>
	bsp_uDelay(1000*50);
    4494:	f8b00637          	lui	a2,0xf8b00
    4498:	0bebc4b7          	lui	s1,0xbebc
    449c:	20048593          	addi	a1,s1,512 # bebc200 <__freertos_irq_stack_top+0xbe96d10>
    44a0:	0000c437          	lui	s0,0xc
    44a4:	35040513          	addi	a0,s0,848 # c350 <netif_remove+0xa0>
    44a8:	a31ff0ef          	jal	ra,3ed8 <clint_uDelay>
	rtl8211_drv_wrdata(0,0x1000);
    44ac:	000015b7          	lui	a1,0x1
    44b0:	00000513          	li	a0,0
    44b4:	e55ff0ef          	jal	ra,4308 <rtl8211_drv_wrdata>
	bsp_uDelay(1000*50);
    44b8:	f8b00637          	lui	a2,0xf8b00
    44bc:	20048593          	addi	a1,s1,512
    44c0:	35040513          	addi	a0,s0,848
    44c4:	a15ff0ef          	jal	ra,3ed8 <clint_uDelay>

	rtl8211_drv_setpage(0x0A43);
    44c8:	000014b7          	lui	s1,0x1
    44cc:	a4348513          	addi	a0,s1,-1469 # a43 <regnum_t6+0xa24>
    44d0:	e65ff0ef          	jal	ra,4334 <rtl8211_drv_setpage>
	rtl8211_drv_wrdata(27,0x8011);
    44d4:	00008437          	lui	s0,0x8
    44d8:	01140593          	addi	a1,s0,17 # 8011 <tcp_write+0x4f9>
    44dc:	01b00513          	li	a0,27
    44e0:	e29ff0ef          	jal	ra,4308 <rtl8211_drv_wrdata>
	rtl8211_drv_wrdata(28,0xD73F);
    44e4:	0000d5b7          	lui	a1,0xd
    44e8:	73f58593          	addi	a1,a1,1855 # d73f <pbuf_take_at+0x27>
    44ec:	01c00513          	li	a0,28
    44f0:	e19ff0ef          	jal	ra,4308 <rtl8211_drv_wrdata>

	rtl8211_drv_setpage(0xD04);
    44f4:	d0448513          	addi	a0,s1,-764
    44f8:	e3dff0ef          	jal	ra,4334 <rtl8211_drv_setpage>
	rtl8211_drv_wrdata(0x10,0x820B);
    44fc:	20b40593          	addi	a1,s0,523
    4500:	01000513          	li	a0,16
    4504:	e05ff0ef          	jal	ra,4308 <rtl8211_drv_wrdata>
}
    4508:	00c12083          	lw	ra,12(sp)
    450c:	00812403          	lw	s0,8(sp)
    4510:	00412483          	lw	s1,4(sp)
    4514:	01010113          	addi	sp,sp,16
    4518:	00008067          	ret

0000451c <uart_writeAvailability>:
    451c:	00452503          	lw	a0,4(a0)
        return (read_u32(reg + UART_STATUS) >> 16) & 0xFF;
    4520:	01055513          	srli	a0,a0,0x10
    }
    4524:	0ff57513          	andi	a0,a0,255
    4528:	00008067          	ret

0000452c <uart_write>:
    static void uart_write(u32 reg, char data){
    452c:	ff010113          	addi	sp,sp,-16
    4530:	00112623          	sw	ra,12(sp)
    4534:	00812423          	sw	s0,8(sp)
    4538:	00912223          	sw	s1,4(sp)
    453c:	00050413          	mv	s0,a0
    4540:	00058493          	mv	s1,a1
        while(uart_writeAvailability(reg) == 0);
    4544:	00040513          	mv	a0,s0
    4548:	fd5ff0ef          	jal	ra,451c <uart_writeAvailability>
    454c:	fe050ce3          	beqz	a0,4544 <uart_write+0x18>
        *((volatile u32*) address) = data;
    4550:	00942023          	sw	s1,0(s0)
    }
    4554:	00c12083          	lw	ra,12(sp)
    4558:	00812403          	lw	s0,8(sp)
    455c:	00412483          	lw	s1,4(sp)
    4560:	01010113          	addi	sp,sp,16
    4564:	00008067          	ret

00004568 <bsp_printHex>:
    {
    4568:	ff010113          	addi	sp,sp,-16
    456c:	00112623          	sw	ra,12(sp)
    4570:	00812423          	sw	s0,8(sp)
    4574:	00912223          	sw	s1,4(sp)
    4578:	00050493          	mv	s1,a0
        for (int i = (4*digits)-4; i >= 0; i -= 4) {
    457c:	01c00413          	li	s0,28
    4580:	0280006f          	j	45a8 <bsp_printHex+0x40>
            uart_write(BSP_UART_TERMINAL, "0123456789ABCDEF"[(val >> i) % 16]);
    4584:	0084d7b3          	srl	a5,s1,s0
    4588:	00f7f713          	andi	a4,a5,15
    458c:	0001d7b7          	lui	a5,0x1d
    4590:	aa878793          	addi	a5,a5,-1368 # 1caa8 <packet_anomaly_detector_means+0x18>
    4594:	00e787b3          	add	a5,a5,a4
    4598:	0007c583          	lbu	a1,0(a5)
    459c:	f8010537          	lui	a0,0xf8010
    45a0:	f8dff0ef          	jal	ra,452c <uart_write>
        for (int i = (4*digits)-4; i >= 0; i -= 4) {
    45a4:	ffc40413          	addi	s0,s0,-4
    45a8:	fc045ee3          	bgez	s0,4584 <bsp_printHex+0x1c>
    }
    45ac:	00c12083          	lw	ra,12(sp)
    45b0:	00812403          	lw	s0,8(sp)
    45b4:	00412483          	lw	s1,4(sp)
    45b8:	01010113          	addi	sp,sp,16
    45bc:	00008067          	ret

000045c0 <bsp_printHex_lower>:
        {
    45c0:	ff010113          	addi	sp,sp,-16
    45c4:	00112623          	sw	ra,12(sp)
    45c8:	00812423          	sw	s0,8(sp)
    45cc:	00912223          	sw	s1,4(sp)
    45d0:	00050493          	mv	s1,a0
            for (int i = (4*digits)-4; i >= 0; i -= 4) {
    45d4:	01c00413          	li	s0,28
    45d8:	0280006f          	j	4600 <bsp_printHex_lower+0x40>
                uart_write(BSP_UART_TERMINAL, "0123456789abcdef"[(val >> i) % 16]);
    45dc:	0084d7b3          	srl	a5,s1,s0
    45e0:	00f7f713          	andi	a4,a5,15
    45e4:	0001d7b7          	lui	a5,0x1d
    45e8:	abc78793          	addi	a5,a5,-1348 # 1cabc <packet_anomaly_detector_means+0x2c>
    45ec:	00e787b3          	add	a5,a5,a4
    45f0:	0007c583          	lbu	a1,0(a5)
    45f4:	f8010537          	lui	a0,0xf8010
    45f8:	f35ff0ef          	jal	ra,452c <uart_write>
            for (int i = (4*digits)-4; i >= 0; i -= 4) {
    45fc:	ffc40413          	addi	s0,s0,-4
    4600:	fc045ee3          	bgez	s0,45dc <bsp_printHex_lower+0x1c>
        }
    4604:	00c12083          	lw	ra,12(sp)
    4608:	00812403          	lw	s0,8(sp)
    460c:	00412483          	lw	s1,4(sp)
    4610:	01010113          	addi	sp,sp,16
    4614:	00008067          	ret

00004618 <bsp_printf_c>:
    {
    4618:	ff010113          	addi	sp,sp,-16
    461c:	00112623          	sw	ra,12(sp)
        bsp_putChar(c);
    4620:	0ff57593          	andi	a1,a0,255
    4624:	f8010537          	lui	a0,0xf8010
    4628:	f05ff0ef          	jal	ra,452c <uart_write>
    }
    462c:	00c12083          	lw	ra,12(sp)
    4630:	01010113          	addi	sp,sp,16
    4634:	00008067          	ret

00004638 <bsp_printf_s>:
    {
    4638:	ff010113          	addi	sp,sp,-16
    463c:	00112623          	sw	ra,12(sp)
    4640:	00812423          	sw	s0,8(sp)
    4644:	00050413          	mv	s0,a0
        while (*p)
    4648:	00044583          	lbu	a1,0(s0)
    464c:	00058a63          	beqz	a1,4660 <bsp_printf_s+0x28>
            bsp_putChar(*(p++));
    4650:	00140413          	addi	s0,s0,1
    4654:	f8010537          	lui	a0,0xf8010
    4658:	ed5ff0ef          	jal	ra,452c <uart_write>
    465c:	fedff06f          	j	4648 <bsp_printf_s+0x10>
    }
    4660:	00c12083          	lw	ra,12(sp)
    4664:	00812403          	lw	s0,8(sp)
    4668:	01010113          	addi	sp,sp,16
    466c:	00008067          	ret

00004670 <bsp_printf_d>:
    {
    4670:	fd010113          	addi	sp,sp,-48
    4674:	02112623          	sw	ra,44(sp)
    4678:	02812423          	sw	s0,40(sp)
    467c:	02912223          	sw	s1,36(sp)
    4680:	00050493          	mv	s1,a0
        if (val < 0) {
    4684:	00054663          	bltz	a0,4690 <bsp_printf_d+0x20>
    {
    4688:	00010413          	mv	s0,sp
    468c:	02c0006f          	j	46b8 <bsp_printf_d+0x48>
            bsp_printf_c('-');
    4690:	02d00513          	li	a0,45
    4694:	f85ff0ef          	jal	ra,4618 <bsp_printf_c>
            val = -val;
    4698:	409004b3          	neg	s1,s1
    469c:	fedff06f          	j	4688 <bsp_printf_d+0x18>
            *(p++) = '0' + val % 10;
    46a0:	00a00713          	li	a4,10
    46a4:	02e4e7b3          	rem	a5,s1,a4
    46a8:	03078793          	addi	a5,a5,48
    46ac:	00f40023          	sb	a5,0(s0)
            val = val / 10;
    46b0:	02e4c4b3          	div	s1,s1,a4
            *(p++) = '0' + val % 10;
    46b4:	00140413          	addi	s0,s0,1
        while (val || p == buffer) {
    46b8:	fe0494e3          	bnez	s1,46a0 <bsp_printf_d+0x30>
    46bc:	00010793          	mv	a5,sp
    46c0:	fef400e3          	beq	s0,a5,46a0 <bsp_printf_d+0x30>
    46c4:	0100006f          	j	46d4 <bsp_printf_d+0x64>
            bsp_printf_c(*(--p));
    46c8:	fff40413          	addi	s0,s0,-1
    46cc:	00044503          	lbu	a0,0(s0)
    46d0:	f49ff0ef          	jal	ra,4618 <bsp_printf_c>
        while (p != buffer)
    46d4:	00010793          	mv	a5,sp
    46d8:	fef418e3          	bne	s0,a5,46c8 <bsp_printf_d+0x58>
    }
    46dc:	02c12083          	lw	ra,44(sp)
    46e0:	02812403          	lw	s0,40(sp)
    46e4:	02412483          	lw	s1,36(sp)
    46e8:	03010113          	addi	sp,sp,48
    46ec:	00008067          	ret

000046f0 <bsp_printf_x>:
    {
    46f0:	ff010113          	addi	sp,sp,-16
    46f4:	00112623          	sw	ra,12(sp)
        for(i=0;i<8;i++)
    46f8:	00000713          	li	a4,0
    46fc:	00700793          	li	a5,7
    4700:	02e7c063          	blt	a5,a4,4720 <bsp_printf_x+0x30>
            if((val & (0xFFFFFFF0 <<(4*i))) == 0)
    4704:	00271693          	slli	a3,a4,0x2
    4708:	ff000793          	li	a5,-16
    470c:	00d797b3          	sll	a5,a5,a3
    4710:	00f577b3          	and	a5,a0,a5
    4714:	00078663          	beqz	a5,4720 <bsp_printf_x+0x30>
        for(i=0;i<8;i++)
    4718:	00170713          	addi	a4,a4,1
    471c:	fe1ff06f          	j	46fc <bsp_printf_x+0xc>
        bsp_printHex_lower(val);
    4720:	ea1ff0ef          	jal	ra,45c0 <bsp_printHex_lower>
    }
    4724:	00c12083          	lw	ra,12(sp)
    4728:	01010113          	addi	sp,sp,16
    472c:	00008067          	ret

00004730 <bsp_printf_X>:
        {
    4730:	ff010113          	addi	sp,sp,-16
    4734:	00112623          	sw	ra,12(sp)
            for(i=0;i<8;i++)
    4738:	00000713          	li	a4,0
    473c:	00700793          	li	a5,7
    4740:	02e7c063          	blt	a5,a4,4760 <bsp_printf_X+0x30>
                if((val & (0xFFFFFFF0 <<(4*i))) == 0)
    4744:	00271693          	slli	a3,a4,0x2
    4748:	ff000793          	li	a5,-16
    474c:	00d797b3          	sll	a5,a5,a3
    4750:	00f577b3          	and	a5,a0,a5
    4754:	00078663          	beqz	a5,4760 <bsp_printf_X+0x30>
            for(i=0;i<8;i++)
    4758:	00170713          	addi	a4,a4,1
    475c:	fe1ff06f          	j	473c <bsp_printf_X+0xc>
            bsp_printHex(val);
    4760:	e09ff0ef          	jal	ra,4568 <bsp_printHex>
        }
    4764:	00c12083          	lw	ra,12(sp)
    4768:	01010113          	addi	sp,sp,16
    476c:	00008067          	ret

00004770 <lwiperf_list_add>:

/** Add an iperf session to the 'active' list */
static void
lwiperf_list_add(lwiperf_state_base_t *item)
{
  item->next = lwiperf_all_connections;
    4770:	8ec1a703          	lw	a4,-1812(gp) # 20094 <lwiperf_all_connections>
    4774:	00e52023          	sw	a4,0(a0) # f8010000 <__freertos_irq_stack_top+0xf7feab10>
  lwiperf_all_connections = item;
    4778:	8ea1a623          	sw	a0,-1812(gp) # 20094 <lwiperf_all_connections>
}
    477c:	00008067          	ret

00004780 <lwiperf_list_find>:

static lwiperf_state_base_t *
lwiperf_list_find(lwiperf_state_base_t *item)
{
  lwiperf_state_base_t *iter;
  for (iter = lwiperf_all_connections; iter != NULL; iter = iter->next) {
    4780:	8ec1a783          	lw	a5,-1812(gp) # 20094 <lwiperf_all_connections>
    4784:	00078a63          	beqz	a5,4798 <lwiperf_list_find+0x18>
    if (iter == item) {
    4788:	00a78663          	beq	a5,a0,4794 <lwiperf_list_find+0x14>
  for (iter = lwiperf_all_connections; iter != NULL; iter = iter->next) {
    478c:	0007a783          	lw	a5,0(a5)
    4790:	ff5ff06f          	j	4784 <lwiperf_list_find+0x4>
      return item;
    4794:	00050793          	mv	a5,a0
    }
  }
  return NULL;
}
    4798:	00078513          	mv	a0,a5
    479c:	00008067          	ret

000047a0 <lwip_tcp_conn_report>:

/** Call the report function of an iperf tcp session */
static void
lwip_tcp_conn_report(lwiperf_state_tcp_t *conn, enum lwiperf_report_type report_type)
{
  if ((conn != NULL) && (conn->report_fn != NULL)) {
    47a0:	08050263          	beqz	a0,4824 <lwip_tcp_conn_report+0x84>
    47a4:	01852783          	lw	a5,24(a0)
    47a8:	06078e63          	beqz	a5,4824 <lwip_tcp_conn_report+0x84>
{
    47ac:	fe010113          	addi	sp,sp,-32
    47b0:	00112e23          	sw	ra,28(sp)
    47b4:	00812c23          	sw	s0,24(sp)
    47b8:	00912a23          	sw	s1,20(sp)
    47bc:	00058493          	mv	s1,a1
    47c0:	00050413          	mv	s0,a0
    u32_t now, duration_ms, bandwidth_kbitpsec;
    now = sys_now();
    47c4:	c25fe0ef          	jal	ra,33e8 <sys_now>
    duration_ms = now - conn->time_started;
    47c8:	01442883          	lw	a7,20(s0)
    47cc:	411508b3          	sub	a7,a0,a7
    if (duration_ms == 0) {
    47d0:	00088a63          	beqz	a7,47e4 <lwip_tcp_conn_report+0x44>
      bandwidth_kbitpsec = 0;
    } else {
      bandwidth_kbitpsec = (conn->bytes_transferred / duration_ms) * 8U;
    47d4:	02442703          	lw	a4,36(s0)
    47d8:	03175733          	divu	a4,a4,a7
    47dc:	00371713          	slli	a4,a4,0x3
    47e0:	0080006f          	j	47e8 <lwip_tcp_conn_report+0x48>
      bandwidth_kbitpsec = 0;
    47e4:	00088713          	mv	a4,a7
    }
    conn->report_fn(conn->report_arg, report_type,
    47e8:	01842303          	lw	t1,24(s0)
                    &conn->conn_pcb->local_ip, conn->conn_pcb->local_port,
    47ec:	01042603          	lw	a2,16(s0)
    conn->report_fn(conn->report_arg, report_type,
    47f0:	01c65783          	lhu	a5,28(a2) # f8b0001c <__freertos_irq_stack_top+0xf8adab2c>
    47f4:	01a65683          	lhu	a3,26(a2)
    47f8:	00e12023          	sw	a4,0(sp)
    47fc:	02442803          	lw	a6,36(s0)
    4800:	00460713          	addi	a4,a2,4
    4804:	00048593          	mv	a1,s1
    4808:	01c42503          	lw	a0,28(s0)
    480c:	000300e7          	jalr	t1
                    &conn->conn_pcb->remote_ip, conn->conn_pcb->remote_port,
                    conn->bytes_transferred, duration_ms, bandwidth_kbitpsec);
  }
}
    4810:	01c12083          	lw	ra,28(sp)
    4814:	01812403          	lw	s0,24(sp)
    4818:	01412483          	lw	s1,20(sp)
    481c:	02010113          	addi	sp,sp,32
    4820:	00008067          	ret
    4824:	00008067          	ret

00004828 <bsp_printf>:
    {
    4828:	fc010113          	addi	sp,sp,-64
    482c:	00112e23          	sw	ra,28(sp)
    4830:	00812c23          	sw	s0,24(sp)
    4834:	00912a23          	sw	s1,20(sp)
    4838:	00050493          	mv	s1,a0
    483c:	02b12223          	sw	a1,36(sp)
    4840:	02c12423          	sw	a2,40(sp)
    4844:	02d12623          	sw	a3,44(sp)
    4848:	02e12823          	sw	a4,48(sp)
    484c:	02f12a23          	sw	a5,52(sp)
    4850:	03012c23          	sw	a6,56(sp)
    4854:	03112e23          	sw	a7,60(sp)
        va_start(ap, format);
    4858:	02410793          	addi	a5,sp,36
    485c:	00f12623          	sw	a5,12(sp)
        for (i = 0; format[i]; i++)
    4860:	00000413          	li	s0,0
    4864:	01c0006f          	j	4880 <bsp_printf+0x58>
                        bsp_printf_c(va_arg(ap,int));
    4868:	00c12783          	lw	a5,12(sp)
    486c:	00478713          	addi	a4,a5,4
    4870:	00e12623          	sw	a4,12(sp)
    4874:	0007a503          	lw	a0,0(a5)
    4878:	da1ff0ef          	jal	ra,4618 <bsp_printf_c>
        for (i = 0; format[i]; i++)
    487c:	00140413          	addi	s0,s0,1
    4880:	008487b3          	add	a5,s1,s0
    4884:	0007c503          	lbu	a0,0(a5)
    4888:	0c050263          	beqz	a0,494c <bsp_printf+0x124>
            if (format[i] == '%') {
    488c:	02500793          	li	a5,37
    4890:	06f50663          	beq	a0,a5,48fc <bsp_printf+0xd4>
                bsp_printf_c(format[i]);
    4894:	d85ff0ef          	jal	ra,4618 <bsp_printf_c>
    4898:	fe5ff06f          	j	487c <bsp_printf+0x54>
                        bsp_printf_s(va_arg(ap,char*));
    489c:	00c12783          	lw	a5,12(sp)
    48a0:	00478713          	addi	a4,a5,4
    48a4:	00e12623          	sw	a4,12(sp)
    48a8:	0007a503          	lw	a0,0(a5)
    48ac:	d8dff0ef          	jal	ra,4638 <bsp_printf_s>
                        break;
    48b0:	fcdff06f          	j	487c <bsp_printf+0x54>
                        bsp_printf_d(va_arg(ap,int));
    48b4:	00c12783          	lw	a5,12(sp)
    48b8:	00478713          	addi	a4,a5,4
    48bc:	00e12623          	sw	a4,12(sp)
    48c0:	0007a503          	lw	a0,0(a5)
    48c4:	dadff0ef          	jal	ra,4670 <bsp_printf_d>
                        break;
    48c8:	fb5ff06f          	j	487c <bsp_printf+0x54>
                        bsp_printf_X(va_arg(ap,int));
    48cc:	00c12783          	lw	a5,12(sp)
    48d0:	00478713          	addi	a4,a5,4
    48d4:	00e12623          	sw	a4,12(sp)
    48d8:	0007a503          	lw	a0,0(a5)
    48dc:	e55ff0ef          	jal	ra,4730 <bsp_printf_X>
                        break;
    48e0:	f9dff06f          	j	487c <bsp_printf+0x54>
                        bsp_printf_x(va_arg(ap,int));
    48e4:	00c12783          	lw	a5,12(sp)
    48e8:	00478713          	addi	a4,a5,4
    48ec:	00e12623          	sw	a4,12(sp)
    48f0:	0007a503          	lw	a0,0(a5)
    48f4:	dfdff0ef          	jal	ra,46f0 <bsp_printf_x>
                        break;
    48f8:	f85ff06f          	j	487c <bsp_printf+0x54>
                while (format[++i]) {
    48fc:	00140413          	addi	s0,s0,1
    4900:	008487b3          	add	a5,s1,s0
    4904:	0007c783          	lbu	a5,0(a5)
    4908:	f6078ae3          	beqz	a5,487c <bsp_printf+0x54>
                    if (format[i] == 'c') {
    490c:	06300713          	li	a4,99
    4910:	f4e78ce3          	beq	a5,a4,4868 <bsp_printf+0x40>
                    else if (format[i] == 's') {
    4914:	07300713          	li	a4,115
    4918:	f8e782e3          	beq	a5,a4,489c <bsp_printf+0x74>
                    else if (format[i] == 'd') {
    491c:	06400713          	li	a4,100
    4920:	f8e78ae3          	beq	a5,a4,48b4 <bsp_printf+0x8c>
                    else if (format[i] == 'X') {
    4924:	05800713          	li	a4,88
    4928:	fae782e3          	beq	a5,a4,48cc <bsp_printf+0xa4>
                    else if (format[i] == 'x') {
    492c:	07800713          	li	a4,120
    4930:	fae78ae3          	beq	a5,a4,48e4 <bsp_printf+0xbc>
                    else if (format[i] == 'f') {
    4934:	06600713          	li	a4,102
    4938:	fce792e3          	bne	a5,a4,48fc <bsp_printf+0xd4>
                        bsp_printf_s("<Floating point printing not enable. Please Enable it at bsp.h first...>");
    493c:	0001d537          	lui	a0,0x1d
    4940:	ad050513          	addi	a0,a0,-1328 # 1cad0 <packet_anomaly_detector_means+0x40>
    4944:	cf5ff0ef          	jal	ra,4638 <bsp_printf_s>
                        break;
    4948:	f35ff06f          	j	487c <bsp_printf+0x54>
    }
    494c:	01c12083          	lw	ra,28(sp)
    4950:	01812403          	lw	s0,24(sp)
    4954:	01412483          	lw	s1,20(sp)
    4958:	04010113          	addi	sp,sp,64
    495c:	00008067          	ret

00004960 <lwiperf_start_tcp_server_impl>:
}

static err_t lwiperf_start_tcp_server_impl(const ip_addr_t *local_addr, u16_t local_port,
                                           lwiperf_report_fn report_fn, void *report_arg,
                                           lwiperf_state_base_t *related_master_state, lwiperf_state_tcp_t **state)
{
    4960:	fe010113          	addi	sp,sp,-32
    4964:	00112e23          	sw	ra,28(sp)
    4968:	00812c23          	sw	s0,24(sp)
    496c:	00912a23          	sw	s1,20(sp)
    4970:	01212823          	sw	s2,16(sp)
    4974:	01312623          	sw	s3,12(sp)
    4978:	01412423          	sw	s4,8(sp)
    497c:	01512223          	sw	s5,4(sp)
    4980:	01612023          	sw	s6,0(sp)
    4984:	00050913          	mv	s2,a0
    4988:	00058b13          	mv	s6,a1
    498c:	00060a13          	mv	s4,a2
    4990:	00068493          	mv	s1,a3
    4994:	00070a93          	mv	s5,a4
    4998:	00078993          	mv	s3,a5
  struct tcp_pcb *pcb;
  lwiperf_state_tcp_t *s;

  LWIP_ASSERT_CORE_LOCKED();

  LWIP_ASSERT("state != NULL", state != NULL);
    499c:	08078663          	beqz	a5,4a28 <lwiperf_start_tcp_server_impl+0xc8>

  if (local_addr == NULL) {
    49a0:	0e090663          	beqz	s2,4a8c <lwiperf_start_tcp_server_impl+0x12c>
    return ERR_ARG;
  }

  s = (lwiperf_state_tcp_t *)LWIPERF_ALLOC(lwiperf_state_tcp_t);
    49a4:	04800513          	li	a0,72
    49a8:	679100ef          	jal	ra,15820 <mem_malloc>
    49ac:	00050413          	mv	s0,a0
  if (s == NULL) {
    49b0:	0e050263          	beqz	a0,4a94 <lwiperf_start_tcp_server_impl+0x134>
    return ERR_MEM;
  }
  memset(s, 0, sizeof(lwiperf_state_tcp_t));
    49b4:	04800613          	li	a2,72
    49b8:	00000593          	li	a1,0
    49bc:	a44fd0ef          	jal	ra,1c00 <memset>
  s->base.tcp = 1;
    49c0:	00100793          	li	a5,1
    49c4:	00f40223          	sb	a5,4(s0)
  s->base.server = 1;
    49c8:	00f402a3          	sb	a5,5(s0)
  s->base.related_master_state = related_master_state;
    49cc:	01542423          	sw	s5,8(s0)
  s->report_fn = report_fn;
    49d0:	01442c23          	sw	s4,24(s0)
  s->report_arg = report_arg;
    49d4:	00942e23          	sw	s1,28(s0)

  pcb = tcp_new_ip_type(LWIPERF_SERVER_IP_TYPE);
    49d8:	02e00513          	li	a0,46
    49dc:	2310e0ef          	jal	ra,1340c <tcp_new_ip_type>
    49e0:	00050493          	mv	s1,a0
  if (pcb == NULL) {
    49e4:	0a050c63          	beqz	a0,4a9c <lwiperf_start_tcp_server_impl+0x13c>
    return ERR_MEM;
  }
  err = tcp_bind(pcb, local_addr, local_port);
    49e8:	000b0613          	mv	a2,s6
    49ec:	00090593          	mv	a1,s2
    49f0:	0490d0ef          	jal	ra,12238 <tcp_bind>
    49f4:	00050913          	mv	s2,a0
  if (err != ERR_OK) {
    49f8:	04050063          	beqz	a0,4a38 <lwiperf_start_tcp_server_impl+0xd8>
  tcp_accept(s->server_pcb, lwiperf_tcp_accept);

  lwiperf_list_add(&s->base);
  *state = s;
  return ERR_OK;
}
    49fc:	00090513          	mv	a0,s2
    4a00:	01c12083          	lw	ra,28(sp)
    4a04:	01812403          	lw	s0,24(sp)
    4a08:	01412483          	lw	s1,20(sp)
    4a0c:	01012903          	lw	s2,16(sp)
    4a10:	00c12983          	lw	s3,12(sp)
    4a14:	00812a03          	lw	s4,8(sp)
    4a18:	00412a83          	lw	s5,4(sp)
    4a1c:	00012b03          	lw	s6,0(sp)
    4a20:	02010113          	addi	sp,sp,32
    4a24:	00008067          	ret
  LWIP_ASSERT("state != NULL", state != NULL);
    4a28:	0001d537          	lui	a0,0x1d
    4a2c:	3f450513          	addi	a0,a0,1012 # 1d3f4 <lwiperf_txbuf_const+0x640>
    4a30:	df9ff0ef          	jal	ra,4828 <bsp_printf>
    4a34:	f6dff06f          	j	49a0 <lwiperf_start_tcp_server_impl+0x40>
  s->server_pcb = tcp_listen_with_backlog(pcb, 1);
    4a38:	00100593          	li	a1,1
    4a3c:	00048513          	mv	a0,s1
    4a40:	2b10d0ef          	jal	ra,124f0 <tcp_listen_with_backlog>
    4a44:	00a42623          	sw	a0,12(s0)
  if (s->server_pcb == NULL) {
    4a48:	02050663          	beqz	a0,4a74 <lwiperf_start_tcp_server_impl+0x114>
  tcp_arg(s->server_pcb, s);
    4a4c:	00040593          	mv	a1,s0
    4a50:	5550d0ef          	jal	ra,127a4 <tcp_arg>
  tcp_accept(s->server_pcb, lwiperf_tcp_accept);
    4a54:	000055b7          	lui	a1,0x5
    4a58:	c0058593          	addi	a1,a1,-1024 # 4c00 <lwiperf_tcp_accept>
    4a5c:	00c42503          	lw	a0,12(s0)
    4a60:	64d0d0ef          	jal	ra,128ac <tcp_accept>
  lwiperf_list_add(&s->base);
    4a64:	00040513          	mv	a0,s0
    4a68:	d09ff0ef          	jal	ra,4770 <lwiperf_list_add>
  *state = s;
    4a6c:	0089a023          	sw	s0,0(s3)
  return ERR_OK;
    4a70:	f8dff06f          	j	49fc <lwiperf_start_tcp_server_impl+0x9c>
      tcp_close(pcb);
    4a74:	00048513          	mv	a0,s1
    4a78:	39d0e0ef          	jal	ra,13614 <tcp_close>
    LWIPERF_FREE(lwiperf_state_tcp_t, s);
    4a7c:	00040513          	mv	a0,s0
    4a80:	1d9100ef          	jal	ra,15458 <mem_free>
    return ERR_MEM;
    4a84:	fff00913          	li	s2,-1
    4a88:	f75ff06f          	j	49fc <lwiperf_start_tcp_server_impl+0x9c>
    return ERR_ARG;
    4a8c:	ff000913          	li	s2,-16
    4a90:	f6dff06f          	j	49fc <lwiperf_start_tcp_server_impl+0x9c>
    return ERR_MEM;
    4a94:	fff00913          	li	s2,-1
    4a98:	f65ff06f          	j	49fc <lwiperf_start_tcp_server_impl+0x9c>
    return ERR_MEM;
    4a9c:	fff00913          	li	s2,-1
    4aa0:	f5dff06f          	j	49fc <lwiperf_start_tcp_server_impl+0x9c>

00004aa4 <lwiperf_list_remove>:
  for (iter = lwiperf_all_connections; iter != NULL; prev = iter, iter = iter->next) {
    4aa4:	8ec1a783          	lw	a5,-1812(gp) # 20094 <lwiperf_all_connections>
  lwiperf_state_base_t *prev = NULL;
    4aa8:	00000713          	li	a4,0
  for (iter = lwiperf_all_connections; iter != NULL; prev = iter, iter = iter->next) {
    4aac:	06078263          	beqz	a5,4b10 <lwiperf_list_remove+0x6c>
    if (iter == item) {
    4ab0:	00a78863          	beq	a5,a0,4ac0 <lwiperf_list_remove+0x1c>
  for (iter = lwiperf_all_connections; iter != NULL; prev = iter, iter = iter->next) {
    4ab4:	00078713          	mv	a4,a5
    4ab8:	0007a783          	lw	a5,0(a5)
    4abc:	ff1ff06f          	j	4aac <lwiperf_list_remove+0x8>
{
    4ac0:	ff010113          	addi	sp,sp,-16
    4ac4:	00112623          	sw	ra,12(sp)
    4ac8:	00812423          	sw	s0,8(sp)
    4acc:	00912223          	sw	s1,4(sp)
      if (prev == NULL) {
    4ad0:	00070c63          	beqz	a4,4ae8 <lwiperf_list_remove+0x44>
        prev->next = iter->next;
    4ad4:	0007a683          	lw	a3,0(a5)
    4ad8:	00d72023          	sw	a3,0(a4)
    4adc:	00050493          	mv	s1,a0
      for (iter = iter->next; iter != NULL; iter = iter->next) {
    4ae0:	0007a403          	lw	s0,0(a5)
    4ae4:	0140006f          	j	4af8 <lwiperf_list_remove+0x54>
        lwiperf_all_connections = iter->next;
    4ae8:	0007a683          	lw	a3,0(a5)
    4aec:	8ed1a623          	sw	a3,-1812(gp) # 20094 <lwiperf_all_connections>
    4af0:	fedff06f          	j	4adc <lwiperf_list_remove+0x38>
      for (iter = iter->next; iter != NULL; iter = iter->next) {
    4af4:	00042403          	lw	s0,0(s0)
    4af8:	00040e63          	beqz	s0,4b14 <lwiperf_list_remove+0x70>
        LWIP_ASSERT("duplicate entry", iter != item);
    4afc:	fe941ce3          	bne	s0,s1,4af4 <lwiperf_list_remove+0x50>
    4b00:	0001d537          	lui	a0,0x1d
    4b04:	40450513          	addi	a0,a0,1028 # 1d404 <lwiperf_txbuf_const+0x650>
    4b08:	d21ff0ef          	jal	ra,4828 <bsp_printf>
    4b0c:	fe9ff06f          	j	4af4 <lwiperf_list_remove+0x50>
    4b10:	00008067          	ret
}
    4b14:	00c12083          	lw	ra,12(sp)
    4b18:	00812403          	lw	s0,8(sp)
    4b1c:	00412483          	lw	s1,4(sp)
    4b20:	01010113          	addi	sp,sp,16
    4b24:	00008067          	ret

00004b28 <lwiperf_tcp_close>:
{
    4b28:	ff010113          	addi	sp,sp,-16
    4b2c:	00112623          	sw	ra,12(sp)
    4b30:	00812423          	sw	s0,8(sp)
    4b34:	00912223          	sw	s1,4(sp)
    4b38:	00050413          	mv	s0,a0
    4b3c:	00058493          	mv	s1,a1
  lwiperf_list_remove(&conn->base);
    4b40:	f65ff0ef          	jal	ra,4aa4 <lwiperf_list_remove>
  lwip_tcp_conn_report(conn, report_type);
    4b44:	00048593          	mv	a1,s1
    4b48:	00040513          	mv	a0,s0
    4b4c:	c55ff0ef          	jal	ra,47a0 <lwip_tcp_conn_report>
  if (conn->conn_pcb != NULL) {
    4b50:	01042503          	lw	a0,16(s0)
    4b54:	06050a63          	beqz	a0,4bc8 <lwiperf_tcp_close+0xa0>
    tcp_arg(conn->conn_pcb, NULL);
    4b58:	00000593          	li	a1,0
    4b5c:	4490d0ef          	jal	ra,127a4 <tcp_arg>
    tcp_poll(conn->conn_pcb, NULL, 0);
    4b60:	00000613          	li	a2,0
    4b64:	00000593          	li	a1,0
    4b68:	01042503          	lw	a0,16(s0)
    4b6c:	55d0d0ef          	jal	ra,128c8 <tcp_poll>
    tcp_sent(conn->conn_pcb, NULL);
    4b70:	00000593          	li	a1,0
    4b74:	01042503          	lw	a0,16(s0)
    4b78:	48d0d0ef          	jal	ra,12804 <tcp_sent>
    tcp_recv(conn->conn_pcb, NULL);
    4b7c:	00000593          	li	a1,0
    4b80:	01042503          	lw	a0,16(s0)
    4b84:	42d0d0ef          	jal	ra,127b0 <tcp_recv>
    tcp_err(conn->conn_pcb, NULL);
    4b88:	00000593          	li	a1,0
    4b8c:	01042503          	lw	a0,16(s0)
    4b90:	4c90d0ef          	jal	ra,12858 <tcp_err>
    err = tcp_close(conn->conn_pcb);
    4b94:	01042503          	lw	a0,16(s0)
    4b98:	27d0e0ef          	jal	ra,13614 <tcp_close>
    if (err != ERR_OK) {
    4b9c:	02051063          	bnez	a0,4bbc <lwiperf_tcp_close+0x94>
  LWIPERF_FREE(lwiperf_state_tcp_t, conn);
    4ba0:	00040513          	mv	a0,s0
    4ba4:	0b5100ef          	jal	ra,15458 <mem_free>
}
    4ba8:	00c12083          	lw	ra,12(sp)
    4bac:	00812403          	lw	s0,8(sp)
    4bb0:	00412483          	lw	s1,4(sp)
    4bb4:	01010113          	addi	sp,sp,16
    4bb8:	00008067          	ret
      tcp_abort(conn->conn_pcb);
    4bbc:	01042503          	lw	a0,16(s0)
    4bc0:	3b80e0ef          	jal	ra,12f78 <tcp_abort>
    4bc4:	fddff06f          	j	4ba0 <lwiperf_tcp_close+0x78>
    err = tcp_close(conn->server_pcb);
    4bc8:	00c42503          	lw	a0,12(s0)
    4bcc:	2490e0ef          	jal	ra,13614 <tcp_close>
    LWIP_ASSERT("error", err == ERR_OK);
    4bd0:	fc0508e3          	beqz	a0,4ba0 <lwiperf_tcp_close+0x78>
    4bd4:	0001d537          	lui	a0,0x1d
    4bd8:	41450513          	addi	a0,a0,1044 # 1d414 <lwiperf_txbuf_const+0x660>
    4bdc:	c4dff0ef          	jal	ra,4828 <bsp_printf>
    4be0:	fc1ff06f          	j	4ba0 <lwiperf_tcp_close+0x78>

00004be4 <lwiperf_tcp_err>:
{
    4be4:	ff010113          	addi	sp,sp,-16
    4be8:	00112623          	sw	ra,12(sp)
  lwiperf_tcp_close(conn, LWIPERF_TCP_ABORTED_REMOTE);
    4bec:	00500593          	li	a1,5
    4bf0:	f39ff0ef          	jal	ra,4b28 <lwiperf_tcp_close>
}
    4bf4:	00c12083          	lw	ra,12(sp)
    4bf8:	01010113          	addi	sp,sp,16
    4bfc:	00008067          	ret

00004c00 <lwiperf_tcp_accept>:
  if ((err != ERR_OK) || (newpcb == NULL) || (arg == NULL)) {
    4c00:	18061c63          	bnez	a2,4d98 <lwiperf_tcp_accept+0x198>
    4c04:	18058e63          	beqz	a1,4da0 <lwiperf_tcp_accept+0x1a0>
    4c08:	1a050063          	beqz	a0,4da8 <lwiperf_tcp_accept+0x1a8>
{
    4c0c:	fe010113          	addi	sp,sp,-32
    4c10:	00112e23          	sw	ra,28(sp)
    4c14:	00812c23          	sw	s0,24(sp)
    4c18:	00912a23          	sw	s1,20(sp)
    4c1c:	01212823          	sw	s2,16(sp)
    4c20:	01312623          	sw	s3,12(sp)
    4c24:	00060993          	mv	s3,a2
    4c28:	00058913          	mv	s2,a1
    4c2c:	00050413          	mv	s0,a0
  LWIP_ASSERT("invalid session", s->base.server);
    4c30:	00554783          	lbu	a5,5(a0)
    4c34:	10078e63          	beqz	a5,4d50 <lwiperf_tcp_accept+0x150>
  LWIP_ASSERT("invalid listen pcb", s->server_pcb != NULL);
    4c38:	00c42783          	lw	a5,12(s0)
    4c3c:	12078263          	beqz	a5,4d60 <lwiperf_tcp_accept+0x160>
  LWIP_ASSERT("invalid conn pcb", s->conn_pcb == NULL);
    4c40:	01042783          	lw	a5,16(s0)
    4c44:	00078863          	beqz	a5,4c54 <lwiperf_tcp_accept+0x54>
    4c48:	0001d537          	lui	a0,0x1d
    4c4c:	44050513          	addi	a0,a0,1088 # 1d440 <lwiperf_txbuf_const+0x68c>
    4c50:	bd9ff0ef          	jal	ra,4828 <bsp_printf>
  if (s->specific_remote) {
    4c54:	04144783          	lbu	a5,65(s0)
    4c58:	12078463          	beqz	a5,4d80 <lwiperf_tcp_accept+0x180>
    LWIP_ASSERT("s->base.related_master_state != NULL", s->base.related_master_state != NULL);
    4c5c:	00842783          	lw	a5,8(s0)
    4c60:	10078863          	beqz	a5,4d70 <lwiperf_tcp_accept+0x170>
    if (!ip_addr_cmp(&newpcb->remote_ip, &s->remote_addr)) {
    4c64:	00492703          	lw	a4,4(s2)
    4c68:	04442783          	lw	a5,68(s0)
    4c6c:	14f71263          	bne	a4,a5,4db0 <lwiperf_tcp_accept+0x1b0>
  conn = (lwiperf_state_tcp_t *)LWIPERF_ALLOC(lwiperf_state_tcp_t);
    4c70:	04800513          	li	a0,72
    4c74:	3ad100ef          	jal	ra,15820 <mem_malloc>
    4c78:	00050493          	mv	s1,a0
  if (conn == NULL) {
    4c7c:	12050e63          	beqz	a0,4db8 <lwiperf_tcp_accept+0x1b8>
  memset(conn, 0, sizeof(lwiperf_state_tcp_t));
    4c80:	04800613          	li	a2,72
    4c84:	00000593          	li	a1,0
    4c88:	f79fc0ef          	jal	ra,1c00 <memset>
  conn->base.tcp = 1;
    4c8c:	00100793          	li	a5,1
    4c90:	00f48223          	sb	a5,4(s1)
  conn->base.server = 1;
    4c94:	00f482a3          	sb	a5,5(s1)
  conn->base.related_master_state = &s->base;
    4c98:	0084a423          	sw	s0,8(s1)
  conn->conn_pcb = newpcb;
    4c9c:	0124a823          	sw	s2,16(s1)
  conn->time_started = sys_now();
    4ca0:	f48fe0ef          	jal	ra,33e8 <sys_now>
    4ca4:	00a4aa23          	sw	a0,20(s1)
  conn->report_fn = s->report_fn;
    4ca8:	01842783          	lw	a5,24(s0)
    4cac:	00f4ac23          	sw	a5,24(s1)
  conn->report_arg = s->report_arg;
    4cb0:	01c42783          	lw	a5,28(s0)
    4cb4:	00f4ae23          	sw	a5,28(s1)
  tcp_arg(newpcb, conn);
    4cb8:	00048593          	mv	a1,s1
    4cbc:	00090513          	mv	a0,s2
    4cc0:	2e50d0ef          	jal	ra,127a4 <tcp_arg>
  tcp_recv(newpcb, lwiperf_tcp_recv);
    4cc4:	000055b7          	lui	a1,0x5
    4cc8:	28858593          	addi	a1,a1,648 # 5288 <lwiperf_tcp_recv>
    4ccc:	00090513          	mv	a0,s2
    4cd0:	2e10d0ef          	jal	ra,127b0 <tcp_recv>
  tcp_poll(newpcb, lwiperf_tcp_poll, 2U);
    4cd4:	00200613          	li	a2,2
    4cd8:	000055b7          	lui	a1,0x5
    4cdc:	f8458593          	addi	a1,a1,-124 # 4f84 <lwiperf_tcp_poll>
    4ce0:	00090513          	mv	a0,s2
    4ce4:	3e50d0ef          	jal	ra,128c8 <tcp_poll>
  tcp_err(conn->conn_pcb, lwiperf_tcp_err);
    4ce8:	000055b7          	lui	a1,0x5
    4cec:	be458593          	addi	a1,a1,-1052 # 4be4 <lwiperf_tcp_err>
    4cf0:	0104a503          	lw	a0,16(s1)
    4cf4:	3650d0ef          	jal	ra,12858 <tcp_err>
  if (s->specific_remote) {
    4cf8:	04144783          	lbu	a5,65(s0)
    4cfc:	02078663          	beqz	a5,4d28 <lwiperf_tcp_accept+0x128>
    conn->base.related_master_state = s->base.related_master_state;
    4d00:	00842503          	lw	a0,8(s0)
    4d04:	00a4a423          	sw	a0,8(s1)
    if (!s->client_tradeoff_mode || !lwiperf_list_find(s->base.related_master_state)) {
    4d08:	02244783          	lbu	a5,34(s0)
    4d0c:	00078663          	beqz	a5,4d18 <lwiperf_tcp_accept+0x118>
    4d10:	a71ff0ef          	jal	ra,4780 <lwiperf_list_find>
    4d14:	00051a63          	bnez	a0,4d28 <lwiperf_tcp_accept+0x128>
      s->report_fn = NULL;
    4d18:	00042c23          	sw	zero,24(s0)
      lwiperf_tcp_close(s, LWIPERF_TCP_ABORTED_LOCAL);
    4d1c:	00200593          	li	a1,2
    4d20:	00040513          	mv	a0,s0
    4d24:	e05ff0ef          	jal	ra,4b28 <lwiperf_tcp_close>
  lwiperf_list_add(&conn->base);
    4d28:	00048513          	mv	a0,s1
    4d2c:	a45ff0ef          	jal	ra,4770 <lwiperf_list_add>
  return ERR_OK;
    4d30:	00098513          	mv	a0,s3
}
    4d34:	01c12083          	lw	ra,28(sp)
    4d38:	01812403          	lw	s0,24(sp)
    4d3c:	01412483          	lw	s1,20(sp)
    4d40:	01012903          	lw	s2,16(sp)
    4d44:	00c12983          	lw	s3,12(sp)
    4d48:	02010113          	addi	sp,sp,32
    4d4c:	00008067          	ret
  LWIP_ASSERT("invalid session", s->base.server);
    4d50:	0001d537          	lui	a0,0x1d
    4d54:	41c50513          	addi	a0,a0,1052 # 1d41c <lwiperf_txbuf_const+0x668>
    4d58:	ad1ff0ef          	jal	ra,4828 <bsp_printf>
    4d5c:	eddff06f          	j	4c38 <lwiperf_tcp_accept+0x38>
  LWIP_ASSERT("invalid listen pcb", s->server_pcb != NULL);
    4d60:	0001d537          	lui	a0,0x1d
    4d64:	42c50513          	addi	a0,a0,1068 # 1d42c <lwiperf_txbuf_const+0x678>
    4d68:	ac1ff0ef          	jal	ra,4828 <bsp_printf>
    4d6c:	ed5ff06f          	j	4c40 <lwiperf_tcp_accept+0x40>
    LWIP_ASSERT("s->base.related_master_state != NULL", s->base.related_master_state != NULL);
    4d70:	0001d537          	lui	a0,0x1d
    4d74:	45450513          	addi	a0,a0,1108 # 1d454 <lwiperf_txbuf_const+0x6a0>
    4d78:	ab1ff0ef          	jal	ra,4828 <bsp_printf>
    4d7c:	ee9ff06f          	j	4c64 <lwiperf_tcp_accept+0x64>
    LWIP_ASSERT("s->base.related_master_state == NULL", s->base.related_master_state == NULL);
    4d80:	00842783          	lw	a5,8(s0)
    4d84:	ee0786e3          	beqz	a5,4c70 <lwiperf_tcp_accept+0x70>
    4d88:	0001d537          	lui	a0,0x1d
    4d8c:	47c50513          	addi	a0,a0,1148 # 1d47c <lwiperf_txbuf_const+0x6c8>
    4d90:	a99ff0ef          	jal	ra,4828 <bsp_printf>
    4d94:	eddff06f          	j	4c70 <lwiperf_tcp_accept+0x70>
    return ERR_VAL;
    4d98:	ffa00513          	li	a0,-6
    4d9c:	00008067          	ret
    4da0:	ffa00513          	li	a0,-6
    4da4:	00008067          	ret
    4da8:	ffa00513          	li	a0,-6
}
    4dac:	00008067          	ret
      return ERR_VAL;
    4db0:	ffa00513          	li	a0,-6
    4db4:	f81ff06f          	j	4d34 <lwiperf_tcp_accept+0x134>
    return ERR_MEM;
    4db8:	fff00513          	li	a0,-1
    4dbc:	f79ff06f          	j	4d34 <lwiperf_tcp_accept+0x134>

00004dc0 <lwiperf_tcp_client_send_more>:
{
    4dc0:	fe010113          	addi	sp,sp,-32
    4dc4:	00112e23          	sw	ra,28(sp)
    4dc8:	00812c23          	sw	s0,24(sp)
    4dcc:	00912a23          	sw	s1,20(sp)
    4dd0:	01212823          	sw	s2,16(sp)
    4dd4:	01312623          	sw	s3,12(sp)
    4dd8:	01412423          	sw	s4,8(sp)
    4ddc:	00050493          	mv	s1,a0
  LWIP_ASSERT("conn invalid", (conn != NULL) && conn->base.tcp && (conn->base.server == 0));
    4de0:	00050a63          	beqz	a0,4df4 <lwiperf_tcp_client_send_more+0x34>
    4de4:	00454783          	lbu	a5,4(a0)
    4de8:	00078663          	beqz	a5,4df4 <lwiperf_tcp_client_send_more+0x34>
    4dec:	00554783          	lbu	a5,5(a0)
    4df0:	0e078863          	beqz	a5,4ee0 <lwiperf_tcp_client_send_more+0x120>
    4df4:	0001d537          	lui	a0,0x1d
    4df8:	4a450513          	addi	a0,a0,1188 # 1d4a4 <lwiperf_txbuf_const+0x6f0>
    4dfc:	a2dff0ef          	jal	ra,4828 <bsp_printf>
    4e00:	0e00006f          	j	4ee0 <lwiperf_tcp_client_send_more+0x120>
        lwiperf_tcp_close(conn, LWIPERF_TCP_DONE_CLIENT);
    4e04:	00100593          	li	a1,1
    4e08:	00048513          	mv	a0,s1
    4e0c:	d1dff0ef          	jal	ra,4b28 <lwiperf_tcp_close>
        return ERR_OK;
    4e10:	1500006f          	j	4f60 <lwiperf_tcp_client_send_more+0x1a0>
      u32_t amount_bytes = lwip_htonl(conn->settings.amount);
    4e14:	728050ef          	jal	ra,a53c <lwip_htonl>
      if (amount_bytes >= conn->bytes_transferred) {
    4e18:	0244a783          	lw	a5,36(s1)
    4e1c:	0ef56c63          	bltu	a0,a5,4f14 <lwiperf_tcp_client_send_more+0x154>
        lwiperf_tcp_close(conn, LWIPERF_TCP_DONE_CLIENT);
    4e20:	00100593          	li	a1,1
    4e24:	00048513          	mv	a0,s1
    4e28:	d01ff0ef          	jal	ra,4b28 <lwiperf_tcp_close>
        return ERR_OK;
    4e2c:	1340006f          	j	4f60 <lwiperf_tcp_client_send_more+0x1a0>
      txptr = &((u8_t *)&conn->settings)[conn->bytes_transferred];
    4e30:	02848913          	addi	s2,s1,40
    4e34:	00890933          	add	s2,s2,s0
      txlen_max = (u16_t)(24 - conn->bytes_transferred);
    4e38:	01041793          	slli	a5,s0,0x10
    4e3c:	0107d793          	srli	a5,a5,0x10
    4e40:	01800413          	li	s0,24
    4e44:	40f40433          	sub	s0,s0,a5
    4e48:	01041413          	slli	s0,s0,0x10
    4e4c:	01045413          	srli	s0,s0,0x10
      apiflags = TCP_WRITE_FLAG_COPY;
    4e50:	00100993          	li	s3,1
    send_more = 0;
    4e54:	00000a13          	li	s4,0
    4e58:	0500006f          	j	4ea8 <lwiperf_tcp_client_send_more+0xe8>
      txptr = LWIP_CONST_CAST(void *, &lwiperf_txbuf_const[conn->bytes_transferred % 10]);
    4e5c:	00a00913          	li	s2,10
    4e60:	032477b3          	remu	a5,s0,s2
    4e64:	0001d937          	lui	s2,0x1d
    4e68:	db490913          	addi	s2,s2,-588 # 1cdb4 <lwiperf_txbuf_const>
    4e6c:	00f90933          	add	s2,s2,a5
      if (conn->bytes_transferred == 48) { /* @todo: fix this for intermediate settings, too */
    4e70:	03000793          	li	a5,48
    4e74:	00f40a63          	beq	s0,a5,4e88 <lwiperf_tcp_client_send_more+0xc8>
      apiflags = 0; /* no copying needed */
    4e78:	00000993          	li	s3,0
      txlen_max = TCP_MSS;
    4e7c:	5b400413          	li	s0,1460
      send_more = 1;
    4e80:	00100a13          	li	s4,1
    4e84:	0240006f          	j	4ea8 <lwiperf_tcp_client_send_more+0xe8>
      apiflags = 0; /* no copying needed */
    4e88:	00000993          	li	s3,0
        txlen_max = TCP_MSS - 24;
    4e8c:	59c00413          	li	s0,1436
      send_more = 1;
    4e90:	00100a13          	li	s4,1
    txlen = txlen_max;
    4e94:	0140006f          	j	4ea8 <lwiperf_tcp_client_send_more+0xe8>
    } while ((err == ERR_MEM) && (txlen >= (TCP_MSS / 2)));
    4e98:	fff00793          	li	a5,-1
    4e9c:	02f51863          	bne	a0,a5,4ecc <lwiperf_tcp_client_send_more+0x10c>
    4ea0:	2d900793          	li	a5,729
    4ea4:	0287f463          	bgeu	a5,s0,4ecc <lwiperf_tcp_client_send_more+0x10c>
      err = tcp_write(conn->conn_pcb, txptr, txlen, apiflags);
    4ea8:	00098693          	mv	a3,s3
    4eac:	00040613          	mv	a2,s0
    4eb0:	00090593          	mv	a1,s2
    4eb4:	0104a503          	lw	a0,16(s1)
    4eb8:	461020ef          	jal	ra,7b18 <tcp_write>
      if (err ==  ERR_MEM) {
    4ebc:	fff00793          	li	a5,-1
    4ec0:	fcf51ce3          	bne	a0,a5,4e98 <lwiperf_tcp_client_send_more+0xd8>
        txlen /= 2;
    4ec4:	00145413          	srli	s0,s0,0x1
    4ec8:	fd1ff06f          	j	4e98 <lwiperf_tcp_client_send_more+0xd8>
    if (err == ERR_OK) {
    4ecc:	08051663          	bnez	a0,4f58 <lwiperf_tcp_client_send_more+0x198>
      conn->bytes_transferred += txlen;
    4ed0:	0244a783          	lw	a5,36(s1)
    4ed4:	00878433          	add	s0,a5,s0
    4ed8:	0284a223          	sw	s0,36(s1)
  } while (send_more);
    4edc:	060a0e63          	beqz	s4,4f58 <lwiperf_tcp_client_send_more+0x198>
    if (conn->settings.amount & PP_HTONL(0x80000000)) {
    4ee0:	03c4a503          	lw	a0,60(s1)
    4ee4:	08057793          	andi	a5,a0,128
    4ee8:	f20786e3          	beqz	a5,4e14 <lwiperf_tcp_client_send_more+0x54>
      u32_t now = sys_now();
    4eec:	cfcfe0ef          	jal	ra,33e8 <sys_now>
      u32_t diff_ms = now - conn->time_started;
    4ef0:	0144a403          	lw	s0,20(s1)
    4ef4:	40850433          	sub	s0,a0,s0
      u32_t time = (u32_t) - (s32_t)lwip_htonl(conn->settings.amount);
    4ef8:	03c4a503          	lw	a0,60(s1)
    4efc:	640050ef          	jal	ra,a53c <lwip_htonl>
      u32_t time_ms = time * 10;
    4f00:	00251793          	slli	a5,a0,0x2
    4f04:	00a78533          	add	a0,a5,a0
    4f08:	00151793          	slli	a5,a0,0x1
    4f0c:	40f007b3          	neg	a5,a5
      if (diff_ms >= time_ms) {
    4f10:	eef47ae3          	bgeu	s0,a5,4e04 <lwiperf_tcp_client_send_more+0x44>
    if (conn->bytes_transferred < 24) {
    4f14:	0244a403          	lw	s0,36(s1)
    4f18:	01700793          	li	a5,23
    4f1c:	f087fae3          	bgeu	a5,s0,4e30 <lwiperf_tcp_client_send_more+0x70>
    } else if (conn->bytes_transferred < 48) {
    4f20:	02f00793          	li	a5,47
    4f24:	f287ece3          	bltu	a5,s0,4e5c <lwiperf_tcp_client_send_more+0x9c>
      txptr = &((u8_t *)&conn->settings)[conn->bytes_transferred - 24];
    4f28:	02848913          	addi	s2,s1,40
    4f2c:	fe840793          	addi	a5,s0,-24
    4f30:	00f90933          	add	s2,s2,a5
      txlen_max = (u16_t)(48 - conn->bytes_transferred);
    4f34:	01041793          	slli	a5,s0,0x10
    4f38:	0107d793          	srli	a5,a5,0x10
    4f3c:	03000413          	li	s0,48
    4f40:	40f40433          	sub	s0,s0,a5
    4f44:	01041413          	slli	s0,s0,0x10
    4f48:	01045413          	srli	s0,s0,0x10
      apiflags = TCP_WRITE_FLAG_COPY | TCP_WRITE_FLAG_MORE;
    4f4c:	00300993          	li	s3,3
      send_more = 1;
    4f50:	00100a13          	li	s4,1
    4f54:	f55ff06f          	j	4ea8 <lwiperf_tcp_client_send_more+0xe8>
  tcp_output(conn->conn_pcb);
    4f58:	0104a503          	lw	a0,16(s1)
    4f5c:	599030ef          	jal	ra,8cf4 <tcp_output>
}
    4f60:	00000513          	li	a0,0
    4f64:	01c12083          	lw	ra,28(sp)
    4f68:	01812403          	lw	s0,24(sp)
    4f6c:	01412483          	lw	s1,20(sp)
    4f70:	01012903          	lw	s2,16(sp)
    4f74:	00c12983          	lw	s3,12(sp)
    4f78:	00812a03          	lw	s4,8(sp)
    4f7c:	02010113          	addi	sp,sp,32
    4f80:	00008067          	ret

00004f84 <lwiperf_tcp_poll>:
{
    4f84:	ff010113          	addi	sp,sp,-16
    4f88:	00112623          	sw	ra,12(sp)
    4f8c:	00812423          	sw	s0,8(sp)
    4f90:	00050413          	mv	s0,a0
  LWIP_ASSERT("pcb mismatch", conn->conn_pcb == tpcb);
    4f94:	01052783          	lw	a5,16(a0)
    4f98:	00b78863          	beq	a5,a1,4fa8 <lwiperf_tcp_poll+0x24>
    4f9c:	0001d537          	lui	a0,0x1d
    4fa0:	4b450513          	addi	a0,a0,1204 # 1d4b4 <lwiperf_txbuf_const+0x700>
    4fa4:	885ff0ef          	jal	ra,4828 <bsp_printf>
  if (++conn->poll_count >= LWIPERF_TCP_MAX_IDLE_SEC) {
    4fa8:	02044783          	lbu	a5,32(s0)
    4fac:	00178793          	addi	a5,a5,1
    4fb0:	0ff7f793          	andi	a5,a5,255
    4fb4:	02f40023          	sb	a5,32(s0)
    4fb8:	00900713          	li	a4,9
    4fbc:	02f76063          	bltu	a4,a5,4fdc <lwiperf_tcp_poll+0x58>
  if (!conn->base.server) {
    4fc0:	00544783          	lbu	a5,5(s0)
    4fc4:	02078463          	beqz	a5,4fec <lwiperf_tcp_poll+0x68>
}
    4fc8:	00000513          	li	a0,0
    4fcc:	00c12083          	lw	ra,12(sp)
    4fd0:	00812403          	lw	s0,8(sp)
    4fd4:	01010113          	addi	sp,sp,16
    4fd8:	00008067          	ret
    lwiperf_tcp_close(conn, LWIPERF_TCP_ABORTED_LOCAL);
    4fdc:	00200593          	li	a1,2
    4fe0:	00040513          	mv	a0,s0
    4fe4:	b45ff0ef          	jal	ra,4b28 <lwiperf_tcp_close>
    return ERR_OK; /* lwiperf_tcp_close frees conn */
    4fe8:	fe1ff06f          	j	4fc8 <lwiperf_tcp_poll+0x44>
    lwiperf_tcp_client_send_more(conn);
    4fec:	00040513          	mv	a0,s0
    4ff0:	dd1ff0ef          	jal	ra,4dc0 <lwiperf_tcp_client_send_more>
    4ff4:	fd5ff06f          	j	4fc8 <lwiperf_tcp_poll+0x44>

00004ff8 <lwiperf_tcp_client_sent>:
{
    4ff8:	ff010113          	addi	sp,sp,-16
    4ffc:	00112623          	sw	ra,12(sp)
    5000:	00812423          	sw	s0,8(sp)
    5004:	00050413          	mv	s0,a0
  LWIP_ASSERT("invalid conn", conn->conn_pcb == tpcb);
    5008:	01052783          	lw	a5,16(a0)
    500c:	00b78863          	beq	a5,a1,501c <lwiperf_tcp_client_sent+0x24>
    5010:	0001d537          	lui	a0,0x1d
    5014:	4c450513          	addi	a0,a0,1220 # 1d4c4 <lwiperf_txbuf_const+0x710>
    5018:	811ff0ef          	jal	ra,4828 <bsp_printf>
  conn->poll_count = 0;
    501c:	02040023          	sb	zero,32(s0)
  return lwiperf_tcp_client_send_more(conn);
    5020:	00040513          	mv	a0,s0
    5024:	d9dff0ef          	jal	ra,4dc0 <lwiperf_tcp_client_send_more>
}
    5028:	00c12083          	lw	ra,12(sp)
    502c:	00812403          	lw	s0,8(sp)
    5030:	01010113          	addi	sp,sp,16
    5034:	00008067          	ret

00005038 <lwiperf_tx_start_impl>:
{
    5038:	fc010113          	addi	sp,sp,-64
    503c:	02112e23          	sw	ra,60(sp)
    5040:	02812c23          	sw	s0,56(sp)
    5044:	02912a23          	sw	s1,52(sp)
    5048:	03212823          	sw	s2,48(sp)
    504c:	03312623          	sw	s3,44(sp)
    5050:	03412423          	sw	s4,40(sp)
    5054:	03512223          	sw	s5,36(sp)
    5058:	03612023          	sw	s6,32(sp)
    505c:	01712e23          	sw	s7,28(sp)
    5060:	01812c23          	sw	s8,24(sp)
    5064:	01912a23          	sw	s9,20(sp)
    5068:	00050993          	mv	s3,a0
    506c:	00058b13          	mv	s6,a1
    5070:	00060a13          	mv	s4,a2
    5074:	00068c13          	mv	s8,a3
    5078:	00070b93          	mv	s7,a4
    507c:	00078c93          	mv	s9,a5
    5080:	00080913          	mv	s2,a6
  LWIP_ASSERT("remote_ip != NULL", remote_ip != NULL);
    5084:	12050663          	beqz	a0,51b0 <lwiperf_tx_start_impl+0x178>
  LWIP_ASSERT("remote_ip != NULL", settings != NULL);
    5088:	120a0c63          	beqz	s4,51c0 <lwiperf_tx_start_impl+0x188>
  LWIP_ASSERT("new_conn != NULL", new_conn != NULL);
    508c:	14090263          	beqz	s2,51d0 <lwiperf_tx_start_impl+0x198>
  *new_conn = NULL;
    5090:	00092023          	sw	zero,0(s2)
  client_conn = (lwiperf_state_tcp_t *)LWIPERF_ALLOC(lwiperf_state_tcp_t);
    5094:	04800513          	li	a0,72
    5098:	788100ef          	jal	ra,15820 <mem_malloc>
    509c:	00050413          	mv	s0,a0
  if (client_conn == NULL) {
    50a0:	16050063          	beqz	a0,5200 <lwiperf_tx_start_impl+0x1c8>
  newpcb = tcp_new_ip_type(IP_GET_TYPE(remote_ip));
    50a4:	00000513          	li	a0,0
    50a8:	3640e0ef          	jal	ra,1340c <tcp_new_ip_type>
    50ac:	00050493          	mv	s1,a0
  if (newpcb == NULL) {
    50b0:	12050863          	beqz	a0,51e0 <lwiperf_tx_start_impl+0x1a8>
  memset(client_conn, 0, sizeof(lwiperf_state_tcp_t));
    50b4:	04800613          	li	a2,72
    50b8:	00000593          	li	a1,0
    50bc:	00040513          	mv	a0,s0
    50c0:	b41fc0ef          	jal	ra,1c00 <memset>
  client_conn->base.tcp = 1;
    50c4:	00100a93          	li	s5,1
    50c8:	01540223          	sb	s5,4(s0)
  client_conn->base.related_master_state = related_master_state;
    50cc:	01942423          	sw	s9,8(s0)
  client_conn->conn_pcb = newpcb;
    50d0:	00942823          	sw	s1,16(s0)
  client_conn->time_started = sys_now(); /* @todo: set this again on 'connected' */
    50d4:	b14fe0ef          	jal	ra,33e8 <sys_now>
    50d8:	00a42a23          	sw	a0,20(s0)
  client_conn->report_fn = report_fn;
    50dc:	01842c23          	sw	s8,24(s0)
  client_conn->report_arg = report_arg;
    50e0:	01742e23          	sw	s7,28(s0)
  client_conn->next_num = 4; /* initial nr is '4' since the header has 24 byte */
    50e4:	00400793          	li	a5,4
    50e8:	02f400a3          	sb	a5,33(s0)
  client_conn->bytes_transferred = 0;
    50ec:	02042223          	sw	zero,36(s0)
  memcpy(&client_conn->settings, settings, sizeof(*settings));
    50f0:	01800613          	li	a2,24
    50f4:	000a0593          	mv	a1,s4
    50f8:	02840513          	addi	a0,s0,40
    50fc:	8c9fc0ef          	jal	ra,19c4 <memcpy>
  client_conn->have_settings_buf = 1;
    5100:	05540023          	sb	s5,64(s0)
  tcp_arg(newpcb, client_conn);
    5104:	00040593          	mv	a1,s0
    5108:	00048513          	mv	a0,s1
    510c:	6980d0ef          	jal	ra,127a4 <tcp_arg>
  tcp_sent(newpcb, lwiperf_tcp_client_sent);
    5110:	000055b7          	lui	a1,0x5
    5114:	ff858593          	addi	a1,a1,-8 # 4ff8 <lwiperf_tcp_client_sent>
    5118:	00048513          	mv	a0,s1
    511c:	6e80d0ef          	jal	ra,12804 <tcp_sent>
  tcp_poll(newpcb, lwiperf_tcp_poll, 2U);
    5120:	00200613          	li	a2,2
    5124:	000055b7          	lui	a1,0x5
    5128:	f8458593          	addi	a1,a1,-124 # 4f84 <lwiperf_tcp_poll>
    512c:	00048513          	mv	a0,s1
    5130:	7980d0ef          	jal	ra,128c8 <tcp_poll>
  tcp_err(newpcb, lwiperf_tcp_err);
    5134:	000055b7          	lui	a1,0x5
    5138:	be458593          	addi	a1,a1,-1052 # 4be4 <lwiperf_tcp_err>
    513c:	00048513          	mv	a0,s1
    5140:	7180d0ef          	jal	ra,12858 <tcp_err>
  ip_addr_copy(remote_addr, *remote_ip);
    5144:	0009a783          	lw	a5,0(s3)
    5148:	00f12623          	sw	a5,12(sp)
  err = tcp_connect(newpcb, &remote_addr, remote_port, lwiperf_tcp_client_connected);
    514c:	000056b7          	lui	a3,0x5
    5150:	4e468693          	addi	a3,a3,1252 # 54e4 <lwiperf_tcp_client_connected>
    5154:	000b0613          	mv	a2,s6
    5158:	00c10593          	addi	a1,sp,12
    515c:	00048513          	mv	a0,s1
    5160:	0890d0ef          	jal	ra,129e8 <tcp_connect>
    5164:	00050493          	mv	s1,a0
  if (err != ERR_OK) {
    5168:	08051463          	bnez	a0,51f0 <lwiperf_tx_start_impl+0x1b8>
  lwiperf_list_add(&client_conn->base);
    516c:	00040513          	mv	a0,s0
    5170:	e00ff0ef          	jal	ra,4770 <lwiperf_list_add>
  *new_conn = client_conn;
    5174:	00892023          	sw	s0,0(s2)
}
    5178:	00048513          	mv	a0,s1
    517c:	03c12083          	lw	ra,60(sp)
    5180:	03812403          	lw	s0,56(sp)
    5184:	03412483          	lw	s1,52(sp)
    5188:	03012903          	lw	s2,48(sp)
    518c:	02c12983          	lw	s3,44(sp)
    5190:	02812a03          	lw	s4,40(sp)
    5194:	02412a83          	lw	s5,36(sp)
    5198:	02012b03          	lw	s6,32(sp)
    519c:	01c12b83          	lw	s7,28(sp)
    51a0:	01812c03          	lw	s8,24(sp)
    51a4:	01412c83          	lw	s9,20(sp)
    51a8:	04010113          	addi	sp,sp,64
    51ac:	00008067          	ret
  LWIP_ASSERT("remote_ip != NULL", remote_ip != NULL);
    51b0:	0001d537          	lui	a0,0x1d
    51b4:	4d450513          	addi	a0,a0,1236 # 1d4d4 <lwiperf_txbuf_const+0x720>
    51b8:	e70ff0ef          	jal	ra,4828 <bsp_printf>
    51bc:	ecdff06f          	j	5088 <lwiperf_tx_start_impl+0x50>
  LWIP_ASSERT("remote_ip != NULL", settings != NULL);
    51c0:	0001d537          	lui	a0,0x1d
    51c4:	4d450513          	addi	a0,a0,1236 # 1d4d4 <lwiperf_txbuf_const+0x720>
    51c8:	e60ff0ef          	jal	ra,4828 <bsp_printf>
    51cc:	ec1ff06f          	j	508c <lwiperf_tx_start_impl+0x54>
  LWIP_ASSERT("new_conn != NULL", new_conn != NULL);
    51d0:	0001d537          	lui	a0,0x1d
    51d4:	4e850513          	addi	a0,a0,1256 # 1d4e8 <lwiperf_txbuf_const+0x734>
    51d8:	e50ff0ef          	jal	ra,4828 <bsp_printf>
    51dc:	eb5ff06f          	j	5090 <lwiperf_tx_start_impl+0x58>
    LWIPERF_FREE(lwiperf_state_tcp_t, client_conn);
    51e0:	00040513          	mv	a0,s0
    51e4:	274100ef          	jal	ra,15458 <mem_free>
    return ERR_MEM;
    51e8:	fff00493          	li	s1,-1
    51ec:	f8dff06f          	j	5178 <lwiperf_tx_start_impl+0x140>
    lwiperf_tcp_close(client_conn, LWIPERF_TCP_ABORTED_LOCAL);
    51f0:	00200593          	li	a1,2
    51f4:	00040513          	mv	a0,s0
    51f8:	931ff0ef          	jal	ra,4b28 <lwiperf_tcp_close>
    return err;
    51fc:	f7dff06f          	j	5178 <lwiperf_tx_start_impl+0x140>
    return ERR_MEM;
    5200:	fff00493          	li	s1,-1
    5204:	f75ff06f          	j	5178 <lwiperf_tx_start_impl+0x140>

00005208 <lwiperf_tx_start_passive>:
{
    5208:	fe010113          	addi	sp,sp,-32
    520c:	00112e23          	sw	ra,28(sp)
    5210:	00812c23          	sw	s0,24(sp)
    5214:	00050413          	mv	s0,a0
  lwiperf_state_tcp_t *new_conn = NULL;
    5218:	00012623          	sw	zero,12(sp)
  u16_t remote_port = (u16_t)lwip_htonl(conn->settings.remote_port);
    521c:	03052503          	lw	a0,48(a0)
    5220:	31c050ef          	jal	ra,a53c <lwip_htonl>
  ret = lwiperf_tx_start_impl(&conn->conn_pcb->remote_ip, remote_port, &conn->settings, conn->report_fn, conn->report_arg,
    5224:	01042883          	lw	a7,16(s0)
    5228:	00c10813          	addi	a6,sp,12
    522c:	00842783          	lw	a5,8(s0)
    5230:	01c42703          	lw	a4,28(s0)
    5234:	01842683          	lw	a3,24(s0)
    5238:	02840613          	addi	a2,s0,40
    523c:	01051593          	slli	a1,a0,0x10
    5240:	0105d593          	srli	a1,a1,0x10
    5244:	00488513          	addi	a0,a7,4
    5248:	df1ff0ef          	jal	ra,5038 <lwiperf_tx_start_impl>
    524c:	00050413          	mv	s0,a0
  if (ret == ERR_OK) {
    5250:	00051a63          	bnez	a0,5264 <lwiperf_tx_start_passive+0x5c>
    LWIP_ASSERT("new_conn != NULL", new_conn != NULL);
    5254:	00c12783          	lw	a5,12(sp)
    5258:	02078063          	beqz	a5,5278 <lwiperf_tx_start_passive+0x70>
    new_conn->settings.flags = 0; /* prevent the remote side starting back as client again */
    525c:	00c12783          	lw	a5,12(sp)
    5260:	0207a423          	sw	zero,40(a5)
}
    5264:	00040513          	mv	a0,s0
    5268:	01c12083          	lw	ra,28(sp)
    526c:	01812403          	lw	s0,24(sp)
    5270:	02010113          	addi	sp,sp,32
    5274:	00008067          	ret
    LWIP_ASSERT("new_conn != NULL", new_conn != NULL);
    5278:	0001d537          	lui	a0,0x1d
    527c:	4e850513          	addi	a0,a0,1256 # 1d4e8 <lwiperf_txbuf_const+0x734>
    5280:	da8ff0ef          	jal	ra,4828 <bsp_printf>
    5284:	fd9ff06f          	j	525c <lwiperf_tx_start_passive+0x54>

00005288 <lwiperf_tcp_recv>:
{
    5288:	fe010113          	addi	sp,sp,-32
    528c:	00112e23          	sw	ra,28(sp)
    5290:	00812c23          	sw	s0,24(sp)
    5294:	00912a23          	sw	s1,20(sp)
    5298:	01212823          	sw	s2,16(sp)
    529c:	01312623          	sw	s3,12(sp)
    52a0:	01412423          	sw	s4,8(sp)
    52a4:	00050493          	mv	s1,a0
    52a8:	00058993          	mv	s3,a1
    52ac:	00060913          	mv	s2,a2
    52b0:	00068413          	mv	s0,a3
  LWIP_ASSERT("pcb mismatch", conn->conn_pcb == tpcb);
    52b4:	01052783          	lw	a5,16(a0)
    52b8:	00b78863          	beq	a5,a1,52c8 <lwiperf_tcp_recv+0x40>
    52bc:	0001d537          	lui	a0,0x1d
    52c0:	4b450513          	addi	a0,a0,1204 # 1d4b4 <lwiperf_txbuf_const+0x700>
    52c4:	d64ff0ef          	jal	ra,4828 <bsp_printf>
  if (err != ERR_OK) {
    52c8:	08041a63          	bnez	s0,535c <lwiperf_tcp_recv+0xd4>
  if (p == NULL) {
    52cc:	0a090063          	beqz	s2,536c <lwiperf_tcp_recv+0xe4>
  tot_len = p->tot_len;
    52d0:	00895a03          	lhu	s4,8(s2)
  conn->poll_count = 0;
    52d4:	02048023          	sb	zero,32(s1)
  if ((!conn->have_settings_buf) || ((conn->bytes_transferred - 24) % (1024 * 128) == 0)) {
    52d8:	0404c703          	lbu	a4,64(s1)
    52dc:	00070e63          	beqz	a4,52f8 <lwiperf_tcp_recv+0x70>
    52e0:	0244a783          	lw	a5,36(s1)
    52e4:	fe878793          	addi	a5,a5,-24
    52e8:	000206b7          	lui	a3,0x20
    52ec:	fff68693          	addi	a3,a3,-1 # 1ffff <memp_PBUF+0x7>
    52f0:	00d7f7b3          	and	a5,a5,a3
    52f4:	04079663          	bnez	a5,5340 <lwiperf_tcp_recv+0xb8>
    if (p->tot_len < sizeof(lwiperf_settings_t)) {
    52f8:	00895683          	lhu	a3,8(s2)
    52fc:	01700793          	li	a5,23
    5300:	08d7fe63          	bgeu	a5,a3,539c <lwiperf_tcp_recv+0x114>
    if (!conn->have_settings_buf) {
    5304:	0a070863          	beqz	a4,53b4 <lwiperf_tcp_recv+0x12c>
      if (conn->settings.flags & PP_HTONL(LWIPERF_FLAGS_ANSWER_TEST)) {
    5308:	0284a783          	lw	a5,40(s1)
    530c:	0807f793          	andi	a5,a5,128
    5310:	10079c63          	bnez	a5,5428 <lwiperf_tcp_recv+0x1a0>
    conn->bytes_transferred += sizeof(lwiperf_settings_t);
    5314:	0244a783          	lw	a5,36(s1)
    5318:	01878793          	addi	a5,a5,24
    531c:	02f4a223          	sw	a5,36(s1)
    if (conn->bytes_transferred <= 24) {
    5320:	01800713          	li	a4,24
    5324:	12f77a63          	bgeu	a4,a5,5458 <lwiperf_tcp_recv+0x1d0>
    conn->next_num = 4; /* 24 bytes received... */
    5328:	00400793          	li	a5,4
    532c:	02f480a3          	sb	a5,33(s1)
    tmp = pbuf_remove_header(p, 24);
    5330:	01800593          	li	a1,24
    5334:	00090513          	mv	a0,s2
    5338:	7c0070ef          	jal	ra,caf8 <pbuf_remove_header>
    LWIP_ASSERT("pbuf_remove_header failed", tmp == 0);
    533c:	12051e63          	bnez	a0,5478 <lwiperf_tcp_recv+0x1f0>
